################################################################################
#                                                                              #
#      IAR Universal Linker V5.2.1.11                                          #
#                                                                              #
#           Link time     =  26/Jul/2017  09:01:47                             #
#           Target CPU    =  MSP430                                            #
#           List file     =  F:\work\01.Location\Location\Project\Project_5438 #
#                            _New\Debug\List\SwbPjc.map                        #
#           Output file 1 =  F:\work\01.Location\Location\Project\Project_5438 #
#                            _New\Debug\Exe\SwbPjc.txt                         #
#                            Format: msp430_txt                                #
#           Command line  =  F:\work\01.Location\Location\Project\Project_5438 #
#                            _New\Debug\Obj\BatteryDetect.r43                  #
#                            F:\work\01.Location\Location\Project\Project_5438 #
#                            _New\Debug\Obj\BeiDouModule.r43                   #
#                            F:\work\01.Location\Location\Project\Project_5438 #
#                            _New\Debug\Obj\CdmaModule.r43                     #
#                            F:\work\01.Location\Location\Project\Project_5438 #
#                            _New\Debug\Obj\Communication.r43                  #
#                            F:\work\01.Location\Location\Project\Project_5438 #
#                            _New\Debug\Obj\DebugCmd.r43                       #
#                            F:\work\01.Location\Location\Project\Project_5438 #
#                            _New\Debug\Obj\GpsParse.r43                       #
#                            F:\work\01.Location\Location\Project\Project_5438 #
#                            _New\Debug\Obj\I2c_Driver.r43                     #
#                            F:\work\01.Location\Location\Project\Project_5438 #
#                            _New\Debug\Obj\OS_MEM.r43                         #
#                            F:\work\01.Location\Location\Project\Project_5438 #
#                            _New\Debug\Obj\Record.r43                         #
#                            F:\work\01.Location\Location\Project\Project_5438 #
#                            _New\Debug\Obj\Rtc.r43                            #
#                            F:\work\01.Location\Location\Project\Project_5438 #
#                            _New\Debug\Obj\SoftTimer.r43                      #
#                            F:\work\01.Location\Location\Project\Project_5438 #
#                            _New\Debug\Obj\SystemCtl.r43                      #
#                            F:\work\01.Location\Location\Project\Project_5438 #
#                            _New\Debug\Obj\Timer.r43                          #
#                            F:\work\01.Location\Location\Project\Project_5438 #
#                            _New\Debug\Obj\Uart0.r43                          #
#                            F:\work\01.Location\Location\Project\Project_5438 #
#                            _New\Debug\Obj\Uart1.r43                          #
#                            F:\work\01.Location\Location\Project\Project_5438 #
#                            _New\Debug\Obj\Uart2.r43                          #
#                            F:\work\01.Location\Location\Project\Project_5438 #
#                            _New\Debug\Obj\Uart3.r43                          #
#                            F:\work\01.Location\Location\Project\Project_5438 #
#                            _New\Debug\Obj\main.r43                           #
#                            -o                                                #
#                            F:\work\01.Location\Location\Project\Project_5438 #
#                            _New\Debug\Exe\SwbPjc.txt                         #
#                            -Fmsp430_txt -l                                   #
#                            F:\work\01.Location\Location\Project\Project_5438 #
#                            _New\Debug\List\SwbPjc.map                        #
#                            -xms                                              #
#                            "-IC:\Program Files (x86)\IAR Systems\Embedded Wo #
#                            rkbench 6.0 Evaluation\430\LIB\"                  #
#                            -f                                                #
#                            "C:\Program Files (x86)\IAR Systems\Embedded Work #
#                            bench 6.0 Evaluation\430\CONFIG\lnk430F5438A.xcl" #
#                            (-cmsp430 -D?CPU30_OFFSET=2 -QCODE_I=CODE_ID      #
#                            -Z(DATA)DATA16_I,DATA16_Z,DATA16_N,DATA16_HEAP+_D #
#                            ATA16_HEAP_SIZE=1C00-5BFF                         #
#                            -Z(DATA)CODE_I                                    #
#                            -Z(DATA)DATA20_I,DATA20_Z,DATA20_N,DATA20_HEAP+_D #
#                            ATA20_HEAP_SIZE                                   #
#                            -Z(DATA)CSTACK+_STACK_SIZE#                       #
#                            -Z(CONST)INFO=1800-19FF                           #
#                            -Z(CONST)INFOA=1980-19FF                          #
#                            -Z(CONST)INFOB=1900-197F                          #
#                            -Z(CONST)INFOC=1880-18FF                          #
#                            -Z(CONST)INFOD=1800-187F                          #
#                            -Z(CODE)CSTART,ISR_CODE=5C00-FF7F                 #
#                            -Z(CONST)DATA16_C,DATA16_ID,DIFUNCT,CHECKSUM=5C00 #
#                            -FF7F                                             #
#                            -P(CODE)CODE=5C00-FF7F,10000-45BFF                #
#                            -Z(CODE)CODE_ID                                   #
#                            -Z(CONST)DATA20_C,DATA20_ID=5C00-FF7F,10000-45BFF #
#                            -Z(CODE)INTVEC=FF80-FFFF                          #
#                            -Z(CODE)RESET=FFFE-FFFF) -f                       #
#                            "C:\Program Files (x86)\IAR Systems\Embedded Work #
#                            bench 6.0 Evaluation\430\config\multiplier32_loc2 #
#                            .xcl"                                             #
#                            (-e?Mul8HwLoc2=?Mul8 -e?Mul16HwLoc2=?Mul16        #
#                            -e?Mul16to32uHwLoc2=?Mul16to32u                   #
#                            -e?Mul16to32sHwLoc2=?Mul16to32s                   #
#                            -e?Mul32Hw32Loc2=?Mul32                           #
#                            -e?Mul64Hw32Loc2=_Mul64i                          #
#                            -e?Mul32u32uto64iHw32Loc2=_Mul32u32uto64i         #
#                            -e?Mul32fHwLoc2=_Mul32f                           #
#                            -e_Mul64fHwPtrLoc2=_Mul64fPtr)                    #
#                            -D_STACK_SIZE=258                                 #
#                            "C:\Program Files (x86)\IAR Systems\Embedded Work #
#                            bench 6.0 Evaluation\430\LIB\DLIB\dl430xlfn.r43"  #
#                            -D_DATA16_HEAP_SIZE=258 -s __program_start        #
#                            -D_DATA20_HEAP_SIZE=A0                            #
#                                                                              #
#                           Copyright (C) 1987-2011 IAR Systems AB.            #
################################################################################





                ****************************************
                *                                      *
                *           CROSS REFERENCE            *
                *                                      *
                ****************************************

       Program entry at :           5C00  Relocatable, from module : ?cstart




                ****************************************
                *                                      *
                *            RUNTIME MODEL             *
                *                                      *
                ****************************************

  __Heap_Handler             = Basic
  __SystemLibrary            = DLib
  __core                     = 430X
  __data_model               = large
  __dlib_file_descriptor     = 0
  __dlib_full_locale_support = 0
  __double_size              = 32
  __pic                      = no
  __reg_r4                   = free
  __reg_r5                   = free
  __rt_version               = 3

                ****************************************
                *                                      *
                *    AUTOMATIC SYMBOL REDIRECTIONS     *
                *                                      *
                ****************************************

       All references to: _Printf
         were redirected to: _PrintfTiny



                ****************************************
                *                                      *
                *              MODULE MAP              *
                *                                      *
                ****************************************


  DEFINED ABSOLUTE ENTRIES
    *************************************************************************

  DEFINED ABSOLUTE ENTRIES
  PROGRAM MODULE, NAME : ?ABS_ENTRY_MOD

Absolute parts
           ENTRY                   ADDRESS         REF BY
           =====                   =======         ======
           _DATA20_HEAP_SIZE       00A0 
           _DATA16_HEAP_SIZE       0258 
           _STACK_SIZE             0258 
           ?CPU30_OFFSET           0002 
    *************************************************************************

  FILE NAME : F:\work\01.Location\Location\Project\Project_5438_New\Debug\Obj\BatteryDetect.r43
  PROGRAM MODULE, NAME : BatteryDetect

  SEGMENTS IN THE MODULE
  ======================
DATA16_AN
  Relative segment, address: 0700 - 0701 (0x2 bytes), align: 0
  Segment part 1. ROOT.       Intra module refs:   ADC_ISR
                                                   AdcDetect
                                                   Adc_Init
                                                   BatteryDetect
                                                   EnterLowPower (SystemCtl)
           ENTRY                   ADDRESS         REF BY
           =====                   =======         ======
           _A_ADC12CTL0_L          0700 
           LOCAL                   ADDRESS         
           =====                   =======         
           ADC12CTL0               0700 
           ADC12CTL0_H             0701 
           ADC12CTL0_L             0700 
    -------------------------------------------------------------------------
DATA16_AN
  Relative segment, address: 0702 - 0703 (0x2 bytes), align: 0
  Segment part 2. ROOT.       Intra module refs:   Adc_Init
           ENTRY                   ADDRESS         REF BY
           =====                   =======         ======
           _A_ADC12CTL1_L          0702 
           LOCAL                   ADDRESS         
           =====                   =======         
           ADC12CTL1               0702 
           ADC12CTL1_H             0703 
           ADC12CTL1_L             0702 
    -------------------------------------------------------------------------
DATA16_AN
  Relative segment, address: 070C - 070D (0x2 bytes), align: 0
  Segment part 3. ROOT.       Intra module refs:   Adc_Init
           ENTRY                   ADDRESS         REF BY
           =====                   =======         ======
           _A_ADC12IE_L            070C 
           LOCAL                   ADDRESS         
           =====                   =======         
           ADC12IE                 070C 
           ADC12IE_H               070D 
           ADC12IE_L               070C 
    -------------------------------------------------------------------------
DATA16_AN
  Relative segment, address: 0720 - 0721 (0x2 bytes), align: 0
  Segment part 4. ROOT.       Intra module refs:   ADC_ISR
           ENTRY                   ADDRESS         REF BY
           =====                   =======         ======
           _A_ADC12MEM0_L          0720 
           LOCAL                   ADDRESS         
           =====                   =======         
           ADC12MEM0               0720 
           ADC12MEM0_H             0721 
           ADC12MEM0_L             0720 
    -------------------------------------------------------------------------
DATA16_AN
  Relative segment, address: 0710 - 0710 (0x1 bytes), align: 0
  Segment part 5. ROOT.       Intra module refs:   Adc_Init
           ENTRY                   ADDRESS         REF BY
           =====                   =======         ======
           ADC12MCTL0              0710 
    -------------------------------------------------------------------------
DATA16_AN
  Relative segment, address: 0242 - 0243 (0x2 bytes), align: 0
  Segment part 6. ROOT.       Intra module refs:   Adc_Init
                                                   BatteryDetect
                                                   FlashLedDisable (SystemCtl)
                                                   FlashLedEnable (SystemCtl)
                                                   LpEnterCfg (SystemCtl)
                                                   ReservedPinCfg (SystemCtl)
                                                   SystemInit (SystemCtl)
           ENTRY                   ADDRESS         REF BY
           =====                   =======         ======
           _A_PCOUT_L              0242 
           LOCAL                   ADDRESS         
           =====                   =======         
           PCOUT                   0242 
           PCOUT_H                 0243 
           PCOUT_L                 0242 
    -------------------------------------------------------------------------
DATA16_AN
  Relative segment, address: 0244 - 0245 (0x2 bytes), align: 0
  Segment part 7. ROOT.       Intra module refs:   Adc_Init
                                                   LpEnterCfg (SystemCtl)
                                                   LpExitCfg (SystemCtl)
                                                   ReservedPinCfg (SystemCtl)
                                                   SystemInit (SystemCtl)
                                                   Uart1Init (Uart1)
           ENTRY                   ADDRESS         REF BY
           =====                   =======         ======
           _A_PCDIR_L              0244 
           LOCAL                   ADDRESS         
           =====                   =======         
           PCDIR                   0244 
           PCDIR_H                 0245 
           PCDIR_L                 0244 
    -------------------------------------------------------------------------
DATA16_AN
  Relative segment, address: 024A - 024B (0x2 bytes), align: 0
  Segment part 8. ROOT.       Intra module refs:   Adc_Init
                                                   LpEnterCfg (SystemCtl)
                                                   LpExitCfg (SystemCtl)
                                                   Uart1Init (Uart1)
           ENTRY                   ADDRESS         REF BY
           =====                   =======         ======
           _A_PCSEL_L              024A 
           LOCAL                   ADDRESS         
           =====                   =======         
           PCSEL                   024A 
           PCSEL_H                 024B 
           PCSEL_L                 024A 
    -------------------------------------------------------------------------
DATA20_Z
  Relative segment, address: 1C1E - 1C3D (0x20 bytes), align: 1
  Segment part 15.            Intra module refs:   ADC_ISR
                                                   AdcDetect
                                                   BatteryDetect
           ENTRY                   ADDRESS         REF BY
           =====                   =======         ======
           au16AdcBuffer           1C1E 
    -------------------------------------------------------------------------
DATA20_Z
  Relative segment, address: 1C3E - 1C3F (0x2 bytes), align: 1
  Segment part 16.            Intra module refs:   ADC_ISR
                                                   AdcDetect
                                                   BatteryDetect
           ENTRY                   ADDRESS         REF BY
           =====                   =======         ======
           u16AdcResules           1C3E 
    -------------------------------------------------------------------------
DATA20_Z
  Relative segment, address: 1EDC - 1EDC (0x1 bytes), align: 0
  Segment part 17.            Intra module refs:   ADC_ISR
                                                   AdcDetect
                                                   BatteryDetect
           ENTRY                   ADDRESS         REF BY
           =====                   =======         ======
           bComplete               1EDC 
    -------------------------------------------------------------------------
DATA20_Z
  Relative segment, address: 1EDD - 1EDD (0x1 bytes), align: 0
  Segment part 18.            Intra module refs:   Adc_Init
                                                   BatteryDetect
           ENTRY                   ADDRESS         REF BY
           =====                   =======         ======
           s8BatDog                1EDD 
    -------------------------------------------------------------------------
<CODE> 1 (was CODE)
  Relative segment, address: BC12 - BC63 (0x52 bytes), align: 1
  Segment part 23.
           ENTRY                   ADDRESS         REF BY
           =====                   =======         ======
           Adc_Init                BC12            main (main)
               calls direct
               CSTACK = 00000000 ( 00000004 )
    -------------------------------------------------------------------------
<CODE> 1 (was CODE)
  Relative segment, address: 97FE - 98E5 (0xe8 bytes), align: 1
  Segment part 22.
           ENTRY                   ADDRESS         REF BY
           =====                   =======         ======
           BatteryDetect           97FE            main (main)
               calls direct
               CSTACK = 00000000 ( 00000014 )
    -------------------------------------------------------------------------
<CODE> 1 (was CODE)
  Relative segment, address: 8A2E - 8B65 (0x138 bytes), align: 1
  Segment part 21.
           ENTRY                   ADDRESS         REF BY
           =====                   =======         ======
           AdcDetect               8A2E            GetBatteryRemainPower (DebugCmd)
               calls direct
               CSTACK = 00000000 ( 0000000E )
    -------------------------------------------------------------------------
ISR_CODE
  Relative segment, address: 5C30 - 5C6F (0x40 bytes), align: 1
  Segment part 20.            Intra module refs:   ADC_ISR::??INTVEC 110
           ENTRY                   ADDRESS         REF BY
           =====                   =======         ======
           ADC_ISR                 5C30 
               interrupt function
               CSTACK = 00000000 ( 0000000C )
    -------------------------------------------------------------------------
DATA20_Z
  Relative segment, address: 1EDE - 1EDE (0x1 bytes), align: 0
  Segment part 19.            Intra module refs:   ADC_ISR
           LOCAL                   ADDRESS         
           =====                   =======         
           ADC_ISR::u8Index        1EDE 
    -------------------------------------------------------------------------
INTVEC
  Common segment, address: FF80 - FFEF (0x70 bytes), align: 1
  Segment part 9. ROOT.
           ENTRY                   ADDRESS         REF BY
           =====                   =======         ======
           ADC_ISR::??INTVEC 110   FFEE 
    -------------------------------------------------------------------------
DATA20_C
  Relative segment, address: CF2C - CF38 (0xd bytes), align: 0
  Segment part 11.            Intra module refs:   Adc_Init
    -------------------------------------------------------------------------
DATA20_C
  Relative segment, address: CF39 - CF5B (0x23 bytes), align: 0
  Segment part 12.            Intra module refs:   AdcDetect
    -------------------------------------------------------------------------
DATA20_C
  Relative segment, address: CF5C - CF61 (0x6 bytes), align: 0
  Segment part 13.            Intra module refs:   AdcDetect
    -------------------------------------------------------------------------
DATA20_C
  Relative segment, address: CF62 - CF94 (0x33 bytes), align: 0
  Segment part 14.            Intra module refs:   AdcDetect

    *************************************************************************

  FILE NAME : F:\work\01.Location\Location\Project\Project_5438_New\Debug\Obj\BeiDouModule.r43
  PROGRAM MODULE, NAME : BeiDouModule

  SEGMENTS IN THE MODULE
  ======================
DATA16_AN
  Relative segment, address: 0202 - 0203 (0x2 bytes), align: 0
  Segment part 1. ROOT.       Intra module refs:   BdModuleInit
                                                   BeiDouToCdma (CdmaModule)
                                                   CdmaRestInit (CdmaModule)
                                                   CdmaToBeiDou (CdmaModule)
                                                   EnterLowPower (SystemCtl)
                                                   LpEnterCfg (SystemCtl)
                                                   ReservedPinCfg (SystemCtl)
                                                   SendInfoToCenter (Communication)
                                                   SystemIdleRun (SystemCtl)
                                                   SystemInit (SystemCtl)
           ENTRY                   ADDRESS         REF BY
           =====                   =======         ======
           _A_PAOUT_L              0202 
           LOCAL                   ADDRESS         
           =====                   =======         
           PAOUT                   0202 
           PAOUT_H                 0203 
           PAOUT_L                 0202 
    -------------------------------------------------------------------------
DATA20_Z
  Relative segment, address: 1EDF - 1EEE (0x10 bytes), align: 0
  Segment part 26.            Intra module refs:   CmdParseFKXX
           ENTRY                   ADDRESS         REF BY
           =====                   =======         ======
           sCmdFkxxCb              1EDF 
    -------------------------------------------------------------------------
DATA20_Z
  Relative segment, address: 1C40 - 1C4D (0xe bytes), align: 1
  Segment part 27.            Intra module refs:   BdCmdAssemble
                                                   BdCmdRun
                                                   BdModuleInit
                                                   CmdParseFKXX
                                                   CmdParseTXXX
           ENTRY                   ADDRESS         REF BY
           =====                   =======         ======
           sBdCmdCb                1C40 
    -------------------------------------------------------------------------
DATA20_I
  Relative segment, address: 1C10 - 1C1B (0xc bytes), align: 0
  Segment part 28.            Intra module refs:   BdSendCmdICJC
           ENTRY                   ADDRESS         REF BY
           =====                   =======         ======
           au8Icjc                 1C10 
    -------------------------------------------------------------------------
DATA20_Z
  Relative segment, address: 1EEF - 1EF1 (0x3 bytes), align: 0
  Segment part 30.            Intra module refs:   BdModuleInit
                                                   BdSendCmdICJC
                                                   BdSendCmdTXSQ
                                                   GetBeiDouIcNum
           ENTRY                   ADDRESS         REF BY
           =====                   =======         ======
           au8LocationAddr         1EEF 
    -------------------------------------------------------------------------
<CODE> 1 (was CODE)
  Relative segment, address: 920C - 9313 (0x108 bytes), align: 1
  Segment part 43.
           ENTRY                   ADDRESS         REF BY
           =====                   =======         ======
           BdSendCmdTXSQ           920C            CmdBeiDouSendMsg (DebugCmd)
                                                   SendInfoToCenter (Communication)
               calls direct
               CSTACK = 00000000 ( 0000001C )
    -------------------------------------------------------------------------
<CODE> 1 (was CODE)
  Relative segment, address: A388 - A43B (0xb4 bytes), align: 1
  Segment part 37.            Intra module refs:   BdModuleInit
           ENTRY                   ADDRESS         REF BY
           =====                   =======         ======
           BdSendCmdICJC           A388            SendInfoToCenter (Communication)
               calls direct
               CSTACK = 00000000 ( 00000014 )
    -------------------------------------------------------------------------
<CODE> 1 (was CODE)
  Relative segment, address: CE74 - CE81 (0xe bytes), align: 1
  Segment part 42.
           ENTRY                   ADDRESS         REF BY
           =====                   =======         ======
           GetBeiDouIcNum          CE74            CmdBeiDouLocNumGet (DebugCmd)
                                                   CmdBeiDouSendMsg (DebugCmd)
               calls direct
               CSTACK = 00000000 ( 00000004 )
    -------------------------------------------------------------------------
<CODE> 1 (was CODE)
  Relative segment, address: CB72 - CB8B (0x1a bytes), align: 1
  Segment part 41.
           ENTRY                   ADDRESS         REF BY
           =====                   =======         ======
           GetBeiDouSendNum        CB72            CmdBeiDouRecNumGet (DebugCmd)
               CSTACK = 00000000 ( 00000004 )
    -------------------------------------------------------------------------
<CODE> 1 (was CODE)
  Relative segment, address: CB8C - CBA5 (0x1a bytes), align: 1
  Segment part 40.
           ENTRY                   ADDRESS         REF BY
           =====                   =======         ======
           GetBeiDouBckSendNum     CB8C            CmdBeiDouBckRecNumGet (DebugCmd)
               CSTACK = 00000000 ( 00000004 )
    -------------------------------------------------------------------------
<CODE> 1 (was CODE)
  Relative segment, address: A78E - A831 (0xa4 bytes), align: 1
  Segment part 33.            Intra module refs:   BdCmdParse
           ENTRY                   ADDRESS         REF BY
           =====                   =======         ======
           CmdParseTXXX            A78E 
               calls direct
               CSTACK = 00000000 ( 00000014 )
    -------------------------------------------------------------------------
<CODE> 1 (was CODE)
  Relative segment, address: B584 - B5F7 (0x74 bytes), align: 1
  Segment part 32.            Intra module refs:   BdCmdParse
           ENTRY                   ADDRESS         REF BY
           =====                   =======         ======
           CmdParseFKXX            B584 
               calls direct
               CSTACK = 00000000 ( 00000004 )
    -------------------------------------------------------------------------
<CODE> 1 (was CODE)
  Relative segment, address: B510 - B583 (0x74 bytes), align: 1
  Segment part 34.            Intra module refs:   BdCmdRun
           ENTRY                   ADDRESS         REF BY
           =====                   =======         ======
           BdCmdParse              B510 
               calls direct
               CSTACK = 00000000 ( 00000008 )
    -------------------------------------------------------------------------
<CODE> 1 (was CODE)
  Relative segment, address: 90FE - 920B (0x10e bytes), align: 1
  Segment part 35.            Intra module refs:   BdCmdRun
           ENTRY                   ADDRESS         REF BY
           =====                   =======         ======
           BdCmdAssemble           90FE 
               CSTACK = 00000000 ( 00000004 )
    -------------------------------------------------------------------------
<CODE> 1 (was CODE)
  Relative segment, address: B81A - B87D (0x64 bytes), align: 1
  Segment part 38.
           ENTRY                   ADDRESS         REF BY
           =====                   =======         ======
           BdModuleInit            B81A            main (main)
               calls direct
               CSTACK = 00000000 ( 00000004 )
    -------------------------------------------------------------------------
<CODE> 1 (was CODE)
  Relative segment, address: 9E20 - 9EEF (0xd0 bytes), align: 1
  Segment part 31.            Intra module refs:   BdCmdRun
           ENTRY                   ADDRESS         REF BY
           =====                   =======         ======
           GetBufBdInfo            9E20 
               calls direct
               CSTACK = 00000000 ( 00000014 )
    -------------------------------------------------------------------------
<CODE> 1 (was CODE)
  Relative segment, address: 9C6E - 9D47 (0xda bytes), align: 1
  Segment part 36.
           ENTRY                   ADDRESS         REF BY
           =====                   =======         ======
           BdCmdRun                9C6E            main (main)
               calls direct
               CSTACK = 00000000 ( 0000000A )
    -------------------------------------------------------------------------
DATA20_ID
  Relative segment, address: E740 - E74B (0xc bytes), align: 0
  Segment part 29.            Intra module refs:   au8Icjc
    -------------------------------------------------------------------------
DATA20_C
  Relative segment, address: CF95 - CF9A (0x6 bytes), align: 0
  Segment part 3.             Intra module refs:   BdSendCmdTXSQ
    -------------------------------------------------------------------------
DATA20_C
  Relative segment, address: CF9B - CFB7 (0x1d bytes), align: 0
  Segment part 4.             Intra module refs:   CmdParseTXXX
                                                   GetBufBdInfo
    -------------------------------------------------------------------------
DATA20_C
  Relative segment, address: CFB8 - CFBB (0x4 bytes), align: 0
  Segment part 5.             Intra module refs:   CmdParseTXXX
                                                   GetBufBdInfo
    -------------------------------------------------------------------------
DATA20_C
  Relative segment, address: CFBC - CFDF (0x24 bytes), align: 0
  Segment part 6.             Intra module refs:   CmdParseFKXX
    -------------------------------------------------------------------------
DATA20_C
  Relative segment, address: CFE0 - CFFF (0x20 bytes), align: 0
  Segment part 7.             Intra module refs:   CmdParseFKXX
    -------------------------------------------------------------------------
DATA20_C
  Relative segment, address: D000 - D01E (0x1f bytes), align: 0
  Segment part 8.             Intra module refs:   CmdParseFKXX
    -------------------------------------------------------------------------
DATA20_C
  Relative segment, address: D01F - D039 (0x1b bytes), align: 0
  Segment part 9.             Intra module refs:   CmdParseFKXX
    -------------------------------------------------------------------------
DATA20_C
  Relative segment, address: D03A - D062 (0x29 bytes), align: 0
  Segment part 10.            Intra module refs:   CmdParseFKXX
    -------------------------------------------------------------------------
DATA20_C
  Relative segment, address: D063 - D091 (0x2f bytes), align: 0
  Segment part 11.            Intra module refs:   CmdParseFKXX
    -------------------------------------------------------------------------
DATA20_C
  Relative segment, address: D092 - D0B0 (0x1f bytes), align: 0
  Segment part 12.            Intra module refs:   CmdParseFKXX
    -------------------------------------------------------------------------
DATA20_C
  Relative segment, address: D0B1 - D0B6 (0x6 bytes), align: 0
  Segment part 13.            Intra module refs:   BdCmdParse
    -------------------------------------------------------------------------
DATA20_C
  Relative segment, address: D0B7 - D0BC (0x6 bytes), align: 0
  Segment part 14.            Intra module refs:   BdCmdParse
    -------------------------------------------------------------------------
DATA20_C
  Relative segment, address: D0BD - D0C2 (0x6 bytes), align: 0
  Segment part 15.            Intra module refs:   BdCmdParse
    -------------------------------------------------------------------------
DATA20_C
  Relative segment, address: D0C3 - D0C8 (0x6 bytes), align: 0
  Segment part 16.            Intra module refs:   BdCmdParse
    -------------------------------------------------------------------------
DATA20_C
  Relative segment, address: D0C9 - D0CE (0x6 bytes), align: 0
  Segment part 17.            Intra module refs:   BdCmdParse
    -------------------------------------------------------------------------
DATA20_C
  Relative segment, address: D0CF - D0DA (0xc bytes), align: 0
  Segment part 18.            Intra module refs:   BdModuleInit

    *************************************************************************

  FILE NAME : F:\work\01.Location\Location\Project\Project_5438_New\Debug\Obj\CdmaModule.r43
  PROGRAM MODULE, NAME : CdmaModule

  SEGMENTS IN THE MODULE
  ======================
DATA16_AN
  Relative segment, address: 0204 - 0205 (0x2 bytes), align: 0
  Segment part 2. ROOT.       Intra module refs:   CdmaRestInit
                                                   LpEnterCfg (SystemCtl)
                                                   ReservedPinCfg (SystemCtl)
                                                   RtcInit (Rtc)
                                                   SystemInit (SystemCtl)
           ENTRY                   ADDRESS         REF BY
           =====                   =======         ======
           _A_PADIR_L              0204 
           LOCAL                   ADDRESS         
           =====                   =======         
           PADIR                   0204 
           PADIR_H                 0205 
           PADIR_L                 0204 
    -------------------------------------------------------------------------
DATA16_AN
  Relative segment, address: 0222 - 0223 (0x2 bytes), align: 0
  Segment part 3. ROOT.       Intra module refs:   CdmaRestInit
                                                   CdmaToBeiDou
                                                   EnterLowPower (SystemCtl)
                                                   LpEnterCfg (SystemCtl)
                                                   ReservedPinCfg (SystemCtl)
                                                   SystemIdleRun (SystemCtl)
                                                   SystemInit (SystemCtl)
                                                   main (main)
           ENTRY                   ADDRESS         REF BY
           =====                   =======         ======
           _A_PBOUT_L              0222 
           LOCAL                   ADDRESS         
           =====                   =======         
           PBOUT                   0222 
           PBOUT_H                 0223 
           PBOUT_L                 0222 
    -------------------------------------------------------------------------
DATA16_AN
  Relative segment, address: 0224 - 0225 (0x2 bytes), align: 0
  Segment part 4. ROOT.       Intra module refs:   CdmaRestInit
                                                   CdmaToBeiDou
                                                   LpEnterCfg (SystemCtl)
                                                   LpExitCfg (SystemCtl)
                                                   ReservedPinCfg (SystemCtl)
                                                   SystemInit (SystemCtl)
                                                   Uart0Init (Uart0)
                                                   main (main)
           ENTRY                   ADDRESS         REF BY
           =====                   =======         ======
           _A_PBDIR_L              0224 
           LOCAL                   ADDRESS         
           =====                   =======         
           PBDIR                   0224 
           PBDIR_H                 0225 
           PBDIR_L                 0224 
    -------------------------------------------------------------------------
DATA16_AN
  Relative segment, address: 015C - 015D (0x2 bytes), align: 0
  Segment part 5. ROOT.       Intra module refs:   BeiDouToCdma
                                                   CdmaDeletMsg (DebugCmd)
                                                   CmdBeiDouBckRecNumSet (DebugCmd)
                                                   CmdBeiDouRecNumSet (DebugCmd)
                                                   CmdCdmaInfoTest (DebugCmd)
                                                   CmdGetCdmaLocationNbr (DebugCmd)
                                                   CmdSetCdmaLocationNbr (DebugCmd)
                                                   CmdSetCdmaReceivingNbr (DebugCmd)
                                                   EnterLowPower (SystemCtl)
                                                   FlashLedDisable (SystemCtl)
                                                   FlashLedEnable (SystemCtl)
                                                   GetCdmaCSQ
                                                   GetLocationNbr
                                                   SetLocationNbr
                                                   SetSendInfoGapTime (DebugCmd)
                                                   SetSystemType (DebugCmd)
                                                   main (main)
           ENTRY                   ADDRESS         REF BY
           =====                   =======         ======
           _A_WDTCTL_L             015C 
           LOCAL                   ADDRESS         
           =====                   =======         
           WDTCTL                  015C 
           WDTCTL_H                015D 
           WDTCTL_L                015C 
    -------------------------------------------------------------------------
DATA20_Z
  Relative segment, address: 1C4E - 1C59 (0xc bytes), align: 1
  Segment part 24.            Intra module refs:   CdmaCmdAssemble
                                                   CdmaCmdHandler
                                                   CdmaCmdInit
                                                   CdmaCmdRun
                                                   CdmaMsgParse
                                                   CdmaRestInit
                                                   CmdCmglParse
                                                   GetCdmaCsqValue
                                                   RegisteUnReadMsg
           ENTRY                   ADDRESS         REF BY
           =====                   =======         ======
           sCdmaCmdCb              1C4E 
    -------------------------------------------------------------------------
DATA20_Z
  Relative segment, address: 1EF2 - 1F0F (0x1e bytes), align: 0
  Segment part 25.            Intra module refs:   CdmaCmdInit
                                                   CmdCmglParse
                                                   GetUnReadMsg
                                                   RegisteUnReadMsg
           ENTRY                   ADDRESS         REF BY
           =====                   =======         ======
           au8MsgUnRead            1EF2 
    -------------------------------------------------------------------------
DATA20_Z
  Relative segment, address: 1F10 - 1F10 (0x1 bytes), align: 0
  Segment part 26.            Intra module refs:   CdmaCmdInit
           ENTRY                   ADDRESS         REF BY
           =====                   =======         ======
           bMsgReady               1F10 
    -------------------------------------------------------------------------
DATA20_I
  Relative segment, address: 1C1C - 1C1C (0x1 bytes), align: 0
  Segment part 27.            Intra module refs:   CdmaCmdHandler
                                                   SendReadMsgCmd
           ENTRY                   ADDRESS         REF BY
           =====                   =======         ======
           s8CurrentIndex          1C1C 
    -------------------------------------------------------------------------
DATA20_C
  Relative segment, address: D0DB - D0E3 (0x9 bytes), align: 0
  Segment part 7.             Intra module refs:   SetLocationNbr
    -------------------------------------------------------------------------
DATA20_C
  Relative segment, address: D0E4 - D0ED (0xa bytes), align: 0
  Segment part 8.             Intra module refs:   GetLocationNbr
    -------------------------------------------------------------------------
DATA20_C
  Relative segment, address: D0EE - D0F7 (0xa bytes), align: 0
  Segment part 12.            Intra module refs:   CdmaCmdInit
    -------------------------------------------------------------------------
DATA20_C
  Relative segment, address: D0F8 - D100 (0x9 bytes), align: 0
  Segment part 13.            Intra module refs:   CdmaCmdInit
    -------------------------------------------------------------------------
DATA20_C
  Relative segment, address: D101 - D107 (0x7 bytes), align: 0
  Segment part 14.            Intra module refs:   CdmaMsgParse
    -------------------------------------------------------------------------
DATA20_C
  Relative segment, address: D108 - D10F (0x8 bytes), align: 0
  Segment part 15.            Intra module refs:   CdmaMsgParse
    -------------------------------------------------------------------------
DATA20_C
  Relative segment, address: D110 - D12D (0x1e bytes), align: 0
  Segment part 16.            Intra module refs:   CdmaCmdHandler
    -------------------------------------------------------------------------
DATA20_C
  Relative segment, address: D12E - D14D (0x20 bytes), align: 0
  Segment part 17.            Intra module refs:   CdmaCmdHandler
    -------------------------------------------------------------------------
DATA20_C
  Relative segment, address: D14E - D16D (0x20 bytes), align: 0
  Segment part 18.            Intra module refs:   CdmaCmdHandler
    -------------------------------------------------------------------------
DATA20_C
  Relative segment, address: D16E - D18C (0x1f bytes), align: 0
  Segment part 19.            Intra module refs:   CdmaCmdHandler
    -------------------------------------------------------------------------
DATA20_C
  Relative segment, address: D18D - D1AC (0x20 bytes), align: 0
  Segment part 20.            Intra module refs:   CdmaCmdHandler
    -------------------------------------------------------------------------
DATA20_C
  Relative segment, address: D1AD - D1BF (0x13 bytes), align: 0
  Segment part 21.            Intra module refs:   CdmaCmdHandler
    -------------------------------------------------------------------------
DATA20_C
  Relative segment, address: D1C0 - D1DE (0x1f bytes), align: 0
  Segment part 22.            Intra module refs:   CdmaCmdHandler
    -------------------------------------------------------------------------
DATA20_C
  Relative segment, address: D1DF - D1FD (0x1f bytes), align: 0
  Segment part 23.            Intra module refs:   CdmaCmdHandler
    -------------------------------------------------------------------------
DATA20_C
  Relative segment, address: D1FE - D205 (0x8 bytes), align: 0
  Segment part 41.            Intra module refs:   CdmaCmdRun
                                                   GetCdmaCSQ
           ENTRY                   ADDRESS         REF BY
           =====                   =======         ======
           au8CSQ                  D1FE 
    -------------------------------------------------------------------------
DATA20_C
  Relative segment, address: D206 - D20F (0xa bytes), align: 0
  Segment part 42.            Intra module refs:   GetCdmaTime
           ENTRY                   ADDRESS         REF BY
           =====                   =======         ======
           au8CCLK                 D206 
    -------------------------------------------------------------------------
DATA20_C
  Relative segment, address: D210 - D21A (0xb bytes), align: 0
  Segment part 43.            Intra module refs:   CdmaRestInit
           ENTRY                   ADDRESS         REF BY
           =====                   =======         ======
           au8CMGF                 D210 
    -------------------------------------------------------------------------
DATA20_C
  Relative segment, address: D21B - D223 (0x9 bytes), align: 0
  Segment part 44.            Intra module refs:   SendReadMsgCmd
           ENTRY                   ADDRESS         REF BY
           =====                   =======         ======
           au8CMGR                 D21B 
    -------------------------------------------------------------------------
DATA20_C
  Relative segment, address: D224 - D231 (0xe bytes), align: 0
  Segment part 49.            Intra module refs:   CdmaRestInit
           ENTRY                   ADDRESS         REF BY
           =====                   =======         ======
           au8ZMSGL_ASCII          D224 
    -------------------------------------------------------------------------
DATA20_C
  Relative segment, address: D232 - D23A (0x9 bytes), align: 0
  Segment part 51.            Intra module refs:   DeletCdmaMsg
           ENTRY                   ADDRESS         REF BY
           =====                   =======         ======
           au8CMGD                 D232 
    -------------------------------------------------------------------------
<CODE> 1 (was CODE)
  Relative segment, address: CEE0 - CEE7 (0x8 bytes), align: 1
  Segment part 55.            Intra module refs:   AssembleCdmaMsg
                                                   CdmaCmdRun
                                                   CdmaRestInit
                                                   DeletCdmaMsg
                                                   GetCdmaCSQ
                                                   GetCdmaTime
                                                   GetLocationNbr
                                                   SendReadMsgCmd
                                                   SetLocationNbr
           ENTRY                   ADDRESS         REF BY
           =====                   =======         ======
           CdmaSendMsg             CEE0 
               calls direct
               CSTACK = 00000000 ( 00000004 )
    -------------------------------------------------------------------------
DATA20_C
  Relative segment, address: D23B - D242 (0x8 bytes), align: 0
  Segment part 53.            Intra module refs:   AssembleCdmaMsg
           ENTRY                   ADDRESS         REF BY
           =====                   =======         ======
           au8CMGS                 D23B 
    -------------------------------------------------------------------------
<CODE> 1 (was CODE)
  Relative segment, address: A4EE - A59B (0xae bytes), align: 1
  Segment part 81.
           ENTRY                   ADDRESS         REF BY
           =====                   =======         ======
           AssembleCdmaMsg         A4EE            CmdCdmaInfoTest (DebugCmd)
                                                   SendInfoToCenter (Communication)
               calls direct
               CSTACK = 00000000 ( 0000001C )
    -------------------------------------------------------------------------
<CODE> 1 (was CODE)
  Relative segment, address: C8CC - C8EF (0x24 bytes), align: 1
  Segment part 62.            Intra module refs:   CdmaCmdHandler
                                                   GetCdmaCSQ
           ENTRY                   ADDRESS         REF BY
           =====                   =======         ======
           CdmaToBeiDou            C8CC            UseAutoMode (DebugCmd)
                                                   UseBeiDouMode (DebugCmd)
               CSTACK = 00000000 ( 00000004 )
    -------------------------------------------------------------------------
<CODE> 1 (was CODE)
  Relative segment, address: C710 - C739 (0x2a bytes), align: 1
  Segment part 80.
           ENTRY                   ADDRESS         REF BY
           =====                   =======         ======
           BeiDouToCdma            C710            UseCdmaMode (DebugCmd)
               calls direct
               CSTACK = 00000000 ( 00000004 )
    -------------------------------------------------------------------------
<CODE> 1 (was CODE)
  Relative segment, address: 9FBA - A083 (0xca bytes), align: 1
  Segment part 59.            Intra module refs:   CdmaCmdHandler
           ENTRY                   ADDRESS         REF BY
           =====                   =======         ======
           DeletCdmaMsg            9FBA            CdmaDeletMsg (DebugCmd)
               calls direct
               CSTACK = 00000000 ( 0000002C )
    -------------------------------------------------------------------------
<CODE> 1 (was CODE)
  Relative segment, address: 98E6 - 99CD (0xe8 bytes), align: 1
  Segment part 78.            Intra module refs:   BeiDouToCdma
                                                   CdmaInit
           ENTRY                   ADDRESS         REF BY
           =====                   =======         ======
           CdmaRestInit            98E6            EnterLowPower (SystemCtl)
               calls direct
               CSTACK = 00000000 ( 00000004 )
    -------------------------------------------------------------------------
<CODE> 1 (was CODE)
  Relative segment, address: CEA6 - CEB1 (0xc bytes), align: 1
  Segment part 79.
           ENTRY                   ADDRESS         REF BY
           =====                   =======         ======
           CdmaInit                CEA6            main (main)
               calls direct
               CSTACK = 00000000 ( 00000004 )
    -------------------------------------------------------------------------
<CODE> 1 (was CODE)
  Relative segment, address: A210 - A2CF (0xc0 bytes), align: 1
  Segment part 77.
           ENTRY                   ADDRESS         REF BY
           =====                   =======         ======
           SetLocationNbr          A210            CmdSetCdmaLocationNbr (DebugCmd)
               calls direct
               CSTACK = 00000000 ( 0000002C )
    -------------------------------------------------------------------------
<CODE> 1 (was CODE)
  Relative segment, address: 9EF0 - 9FB9 (0xca bytes), align: 1
  Segment part 76.
           ENTRY                   ADDRESS         REF BY
           =====                   =======         ======
           GetLocationNbr          9EF0            CmdGetCdmaLocationNbr (DebugCmd)
               calls direct
               CSTACK = 00000000 ( 00000054 )
    -------------------------------------------------------------------------
<CODE> 1 (was CODE)
  Relative segment, address: 9314 - 9415 (0x102 bytes), align: 1
  Segment part 69.
           ENTRY                   ADDRESS         REF BY
           =====                   =======         ======
           GetCdmaCSQ              9314            CmdGetCdmaCSQ (DebugCmd)
                                                   UseAutoMode (DebugCmd)
               calls direct
               CSTACK = 00000000 ( 00000014 )
    -------------------------------------------------------------------------
<CODE> 1 (was CODE)
  Relative segment, address: 99CE - 9AAF (0xe2 bytes), align: 1
  Segment part 73.            Intra module refs:   SetCdmaTimeToRtc
           ENTRY                   ADDRESS         REF BY
           =====                   =======         ======
           GetCdmaTime             99CE            CmdGetCdmaTime (DebugCmd)
               calls direct
               CSTACK = 00000000 ( 00000024 )
    -------------------------------------------------------------------------
<CODE> 1 (was CODE)
  Relative segment, address: 755A - 76DD (0x184 bytes), align: 1
  Segment part 74.
           ENTRY                   ADDRESS         REF BY
           =====                   =======         ======
           SetCdmaTimeToRtc        755A            SetRtcTime (DebugCmd)
               calls direct
               CSTACK = 00000000 ( 0000002C )
    -------------------------------------------------------------------------
<CODE> 1 (was CODE)
  Relative segment, address: A968 - A9FD (0x96 bytes), align: 1
  Segment part 68.            Intra module refs:   CdmaInit
           ENTRY                   ADDRESS         REF BY
           =====                   =======         ======
           CdmaCmdInit             A968 
               calls direct
               CSTACK = 00000000 ( 00000004 )
    -------------------------------------------------------------------------
<CODE> 1 (was CODE)
  Relative segment, address: 67C8 - 6995 (0x1ce bytes), align: 1
  Segment part 65.            Intra module refs:   CdmaCmdRun
           ENTRY                   ADDRESS         REF BY
           =====                   =======         ======
           CdmaCmdAssemble         67C8 
               calls direct
               CSTACK = 00000000 ( 00000004 )
    -------------------------------------------------------------------------
<CODE> 1 (was CODE)
  Relative segment, address: 9416 - 9513 (0xfe bytes), align: 1
  Segment part 61.            Intra module refs:   CdmaCmdHandler
           ENTRY                   ADDRESS         REF BY
           =====                   =======         ======
           RegisteUnReadMsg        9416 
               calls direct
               CSTACK = 00000000 ( 00000014 )
    -------------------------------------------------------------------------
<CODE> 1 (was CODE)
  Relative segment, address: C6E4 - C70F (0x2c bytes), align: 1
  Segment part 56.            Intra module refs:   SendReadMsgCmd
           ENTRY                   ADDRESS         REF BY
           =====                   =======         ======
           GetUnReadMsg            C6E4 
               CSTACK = 00000000 ( 00000004 )
    -------------------------------------------------------------------------
<CODE> 1 (was CODE)
  Relative segment, address: AC56 - ACE7 (0x92 bytes), align: 1
  Segment part 63.            Intra module refs:   CdmaCmdHandler
           ENTRY                   ADDRESS         REF BY
           =====                   =======         ======
           GetCdmaCsqValue         AC56 
               calls direct
               CSTACK = 00000000 ( 00000024 )
    -------------------------------------------------------------------------
<CODE> 1 (was CODE)
  Relative segment, address: A14C - A20F (0xc4 bytes), align: 1
  Segment part 57.            Intra module refs:   CdmaCmdRun
           ENTRY                   ADDRESS         REF BY
           =====                   =======         ======
           SendReadMsgCmd          A14C 
               calls direct
               CSTACK = 00000000 ( 00000024 )
    -------------------------------------------------------------------------
DATA20_Z
  Relative segment, address: 1F11 - 1F18 (0x8 bytes), align: 0
  Segment part 54.            Intra module refs:   CmdCmglParse
           ENTRY                   ADDRESS         REF BY
           =====                   =======         ======
           au8CmglIndex            1F11 
    -------------------------------------------------------------------------
<CODE> 1 (was CODE)
  Relative segment, address: A8D0 - A967 (0x98 bytes), align: 1
  Segment part 58.            Intra module refs:   CdmaCmdHandler
           ENTRY                   ADDRESS         REF BY
           =====                   =======         ======
           CmdCmglParse            A8D0 
               CSTACK = 00000000 ( 00000008 )
    -------------------------------------------------------------------------
<CODE> 1 (was CODE)
  Relative segment, address: 73D0 - 7559 (0x18a bytes), align: 1
  Segment part 60.            Intra module refs:   CdmaCmdHandler
           ENTRY                   ADDRESS         REF BY
           =====                   =======         ======
           CdmaMsgParse            73D0 
               calls direct
               CSTACK = 00000000 ( 0000004C )
    -------------------------------------------------------------------------
<CODE> 1 (was CODE)
  Relative segment, address: 8182 - 82C3 (0x142 bytes), align: 1
  Segment part 64.            Intra module refs:   CdmaCmdRun
           ENTRY                   ADDRESS         REF BY
           =====                   =======         ======
           CdmaCmdHandler          8182 
               calls direct
               CSTACK = 00000000 ( 00000004 )
    -------------------------------------------------------------------------
<CODE> 1 (was CODE)
  Relative segment, address: 8B66 - 8C95 (0x130 bytes), align: 1
  Segment part 66.
           ENTRY                   ADDRESS         REF BY
           =====                   =======         ======
           CdmaCmdRun              8B66            main (main)
               calls direct
               CSTACK = 00000000 ( 00000004 )
    -------------------------------------------------------------------------
DATA20_ID
  Relative segment, address: E74C - E74C (0x1 bytes), align: 0
  Segment part 28.            Intra module refs:   s8CurrentIndex

    *************************************************************************

  FILE NAME : F:\work\01.Location\Location\Project\Project_5438_New\Debug\Obj\Communication.r43
  PROGRAM MODULE, NAME : Communication

  SEGMENTS IN THE MODULE
  ======================
DATA20_Z
  Relative segment, address: 1F19 - 1F39 (0x21 bytes), align: 0
  Segment part 9.             Intra module refs:   SendInfoToCenter
           ENTRY                   ADDRESS         REF BY
           =====                   =======         ======
           au8BdSendInfo           1F19            CmdParseTXXX (BeiDouModule)
                                                   GetBufBdInfo (BeiDouModule)
    -------------------------------------------------------------------------
DATA20_Z
  Relative segment, address: 1F3A - 1F5A (0x21 bytes), align: 0
  Segment part 10.
           ENTRY                   ADDRESS         REF BY
           =====                   =======         ======
           au8BdRxInfo             1F3A            CmdParseTXXX (BeiDouModule)
                                                   GetBufBdInfo (BeiDouModule)
    -------------------------------------------------------------------------
DATA20_Z
  Relative segment, address: 1C5A - 1C5B (0x2 bytes), align: 1
  Segment part 11.            Intra module refs:   CommunicationInit
                                                   SendInfoToCenter
           ENTRY                   ADDRESS         REF BY
           =====                   =======         ======
           u16BdSendNum            1C5A            CmdBeiDouClrSendSuccess (DebugCmd)
                                                   EnterLowPower (SystemCtl)
                                                   RecordInit (Record)
    -------------------------------------------------------------------------
DATA20_Z
  Relative segment, address: 1C5C - 1C5D (0x2 bytes), align: 1
  Segment part 12.
           ENTRY                   ADDRESS         REF BY
           =====                   =======         ======
           u16BdSendSucceed        1C5C            CmdBeiDouClrSendSuccess (DebugCmd)
                                                   CmdParseFKXX (BeiDouModule)
                                                   EnterLowPower (SystemCtl)
                                                   RecordInit (Record)
    -------------------------------------------------------------------------
DATA20_Z
  Relative segment, address: 1C5E - 1C5F (0x2 bytes), align: 1
  Segment part 13.            Intra module refs:   CommunicationInit
           ENTRY                   ADDRESS         REF BY
           =====                   =======         ======
           u16BdRxNum              1C5E            CmdBeiDouClrSendSuccess (DebugCmd)
                                                   CmdParseTXXX (BeiDouModule)
                                                   EnterLowPower (SystemCtl)
                                                   GetBufBdInfo (BeiDouModule)
                                                   RecordInit (Record)
    -------------------------------------------------------------------------
DATA20_Z
  Relative segment, address: 1F5B - 1F5B (0x1 bytes), align: 0
  Segment part 14.            Intra module refs:   CommunicationInit
           ENTRY                   ADDRESS         REF BY
           =====                   =======         ======
           u8BdCentage             1F5B            EnterLowPower (SystemCtl)
    -------------------------------------------------------------------------
DATA20_Z
  Relative segment, address: 1F5C - 1F96 (0x3b bytes), align: 0
  Segment part 15.            Intra module refs:   CommunicationInit
                                                   SendInfoToCenter
           ENTRY                   ADDRESS         REF BY
           =====                   =======         ======
           sSendInfo               1F5C            AutoSystemGapTime (SystemCtl)
                                                   BatteryDetect (BatteryDetect)
                                                   BdModuleInit (BeiDouModule)
                                                   CalibratLocation (GpsParse)
                                                   CdmaCmdHandler (CdmaModule)
                                                   CdmaCmdInit (CdmaModule)
                                                   CmdSetCdmaLocationNbr (DebugCmd)
                                                   EnterLowPower (SystemCtl)
                                                   PORT1_ISR (SystemCtl)
                                                   RecordInit (Record)
                                                   RecordRun (Record)
                                                   SystemIdleRun (SystemCtl)
                                                   UseAutoMode (DebugCmd)
                                                   UseBeiDouMode (DebugCmd)
                                                   UseCdmaMode (DebugCmd)
    -------------------------------------------------------------------------
DATA20_Z
  Relative segment, address: 1F97 - 1F97 (0x1 bytes), align: 0
  Segment part 16.            Intra module refs:   CommunicationInit
                                                   SendInfoToCenter
           ENTRY                   ADDRESS         REF BY
           =====                   =======         ======
           s8TestDog               1F97 
    -------------------------------------------------------------------------
<CODE> 1 (was CODE)
  Relative segment, address: A43C - A4ED (0xb2 bytes), align: 1
  Segment part 18.
           ENTRY                   ADDRESS         REF BY
           =====                   =======         ======
           CommunicationInit       A43C            main (main)
               calls direct
               CSTACK = 00000000 ( 00000004 )
    -------------------------------------------------------------------------
<CODE> 1 (was CODE)
  Relative segment, address: 5E22 - 61C9 (0x3a8 bytes), align: 1
  Segment part 17.
           ENTRY                   ADDRESS         REF BY
           =====                   =======         ======
           SendInfoToCenter        5E22            main (main)
               calls direct
               CSTACK = 00000000 ( 0000000C )
    -------------------------------------------------------------------------
DATA20_C
  Relative segment, address: D243 - D252 (0x10 bytes), align: 0
  Segment part 3.             Intra module refs:   CommunicationInit
    -------------------------------------------------------------------------
DATA20_C
  Relative segment, address: D253 - D25C (0xa bytes), align: 0
  Segment part 4.             Intra module refs:   CommunicationInit
    -------------------------------------------------------------------------
DATA20_C
  Relative segment, address: D25D - D272 (0x16 bytes), align: 0
  Segment part 5.             Intra module refs:   SendInfoToCenter
    -------------------------------------------------------------------------
DATA20_C
  Relative segment, address: D273 - D28C (0x1a bytes), align: 0
  Segment part 6.             Intra module refs:   SendInfoToCenter
    -------------------------------------------------------------------------
DATA20_C
  Relative segment, address: D28D - D297 (0xb bytes), align: 0
  Segment part 7.             Intra module refs:   SendInfoToCenter
    -------------------------------------------------------------------------
DATA20_C
  Relative segment, address: D298 - D2AA (0x13 bytes), align: 0
  Segment part 8.             Intra module refs:   SendInfoToCenter

    *************************************************************************

  FILE NAME : F:\work\01.Location\Location\Project\Project_5438_New\Debug\Obj\DebugCmd.r43
  PROGRAM MODULE, NAME : DebugCmd

  SEGMENTS IN THE MODULE
  ======================
DATA20_C
  Relative segment, address: D2AB - D2EC (0x42 bytes), align: 0
  Segment part 3.             Intra module refs:   CdmaDeletMsg
                                                   CmdBeiDouBckRecNumGet
                                                   CmdBeiDouBckRecNumSet
                                                   CmdBeiDouClrSendSuccess
                                                   CmdBeiDouGetSendSuccess
                                                   CmdBeiDouLocNumGet
                                                   CmdBeiDouRecNumGet
                                                   CmdBeiDouRecNumSet
                                                   CmdCdmaDebugClose
                                                   CmdCdmaDebugOpen
                                                   CmdCdmaInfoTest
                                                   CmdGetCdmaCSQ
                                                   CmdGetCdmaLocationNbr
                                                   CmdGetCdmaReceivingNbr
                                                   CmdGetCdmaTime
                                                   CmdGpsDebugClose
                                                   CmdGpsDebugOpen
                                                   CmdSetCdmaLocationNbr
                                                   CmdSetCdmaReceivingNbr
                                                   GetBatteryRemainPower
                                                   GetRtcTime
                                                   GetSendInfoGapTime
                                                   GetSystemType
                                                   GetSystemVersionInfo
                                                   PrintfCmdList
                                                   SetRtcTime
                                                   SetSendInfoGapTime
                                                   SetSystemType
                                                   SystemRunTimeClear
                                                   SystemRunTimeGet
                                                   UartHandShake
    -------------------------------------------------------------------------
DATA20_C
  Relative segment, address: D2ED - D31E (0x32 bytes), align: 0
  Segment part 4.             Intra module refs:   GetSystemVersionInfo
                                                   PrintfCmdList
    -------------------------------------------------------------------------
DATA20_C
  Relative segment, address: D31F - D337 (0x19 bytes), align: 0
  Segment part 5.             Intra module refs:   GetSystemVersionInfo
                                                   PrintfCmdList
    -------------------------------------------------------------------------
DATA20_C
  Relative segment, address: D338 - D33C (0x5 bytes), align: 0
  Segment part 6.             Intra module refs:   PrintfCmdList
    -------------------------------------------------------------------------
DATA20_C
  Relative segment, address: D33D - D35D (0x21 bytes), align: 0
  Segment part 7.             Intra module refs:   PrintfCmdList
    -------------------------------------------------------------------------
DATA20_C
  Relative segment, address: D35E - D363 (0x6 bytes), align: 0
  Segment part 8.             Intra module refs:   PrintfCmdList
    -------------------------------------------------------------------------
DATA20_C
  Relative segment, address: D364 - D3A5 (0x42 bytes), align: 0
  Segment part 9.             Intra module refs:   PrintfCmdList
    -------------------------------------------------------------------------
DATA20_C
  Relative segment, address: D3A6 - D3CB (0x26 bytes), align: 0
  Segment part 10.            Intra module refs:   PrintfCmdList
    -------------------------------------------------------------------------
DATA20_C
  Relative segment, address: D3CC - D3F1 (0x26 bytes), align: 0
  Segment part 11.            Intra module refs:   PrintfCmdList
    -------------------------------------------------------------------------
DATA20_C
  Relative segment, address: D3F2 - D417 (0x26 bytes), align: 0
  Segment part 12.            Intra module refs:   PrintfCmdList
    -------------------------------------------------------------------------
DATA20_C
  Relative segment, address: D418 - D43D (0x26 bytes), align: 0
  Segment part 13.            Intra module refs:   PrintfCmdList
    -------------------------------------------------------------------------
DATA20_C
  Relative segment, address: D43E - D463 (0x26 bytes), align: 0
  Segment part 14.            Intra module refs:   PrintfCmdList
    -------------------------------------------------------------------------
DATA20_C
  Relative segment, address: D464 - D489 (0x26 bytes), align: 0
  Segment part 15.            Intra module refs:   PrintfCmdList
    -------------------------------------------------------------------------
DATA20_C
  Relative segment, address: D48A - D4AF (0x26 bytes), align: 0
  Segment part 16.            Intra module refs:   PrintfCmdList
    -------------------------------------------------------------------------
DATA20_C
  Relative segment, address: D4B0 - D4D5 (0x26 bytes), align: 0
  Segment part 17.            Intra module refs:   PrintfCmdList
    -------------------------------------------------------------------------
DATA20_C
  Relative segment, address: D4D6 - D4FB (0x26 bytes), align: 0
  Segment part 18.            Intra module refs:   PrintfCmdList
    -------------------------------------------------------------------------
DATA20_C
  Relative segment, address: D4FC - D521 (0x26 bytes), align: 0
  Segment part 19.            Intra module refs:   PrintfCmdList
    -------------------------------------------------------------------------
DATA20_C
  Relative segment, address: D522 - D547 (0x26 bytes), align: 0
  Segment part 20.            Intra module refs:   PrintfCmdList
    -------------------------------------------------------------------------
DATA20_C
  Relative segment, address: D548 - D56D (0x26 bytes), align: 0
  Segment part 21.            Intra module refs:   PrintfCmdList
    -------------------------------------------------------------------------
DATA20_C
  Relative segment, address: D56E - D593 (0x26 bytes), align: 0
  Segment part 22.            Intra module refs:   PrintfCmdList
    -------------------------------------------------------------------------
DATA20_C
  Relative segment, address: D594 - D5B9 (0x26 bytes), align: 0
  Segment part 23.            Intra module refs:   PrintfCmdList
    -------------------------------------------------------------------------
DATA20_C
  Relative segment, address: D5BA - D5DF (0x26 bytes), align: 0
  Segment part 24.            Intra module refs:   PrintfCmdList
    -------------------------------------------------------------------------
DATA20_C
  Relative segment, address: D5E0 - D605 (0x26 bytes), align: 0
  Segment part 25.            Intra module refs:   PrintfCmdList
    -------------------------------------------------------------------------
DATA20_C
  Relative segment, address: D606 - D62B (0x26 bytes), align: 0
  Segment part 26.            Intra module refs:   PrintfCmdList
    -------------------------------------------------------------------------
DATA20_C
  Relative segment, address: D62C - D651 (0x26 bytes), align: 0
  Segment part 27.            Intra module refs:   PrintfCmdList
    -------------------------------------------------------------------------
DATA20_C
  Relative segment, address: D652 - D677 (0x26 bytes), align: 0
  Segment part 28.            Intra module refs:   PrintfCmdList
    -------------------------------------------------------------------------
DATA20_C
  Relative segment, address: D678 - D69D (0x26 bytes), align: 0
  Segment part 29.            Intra module refs:   PrintfCmdList
    -------------------------------------------------------------------------
DATA20_C
  Relative segment, address: D69E - D6C3 (0x26 bytes), align: 0
  Segment part 30.            Intra module refs:   PrintfCmdList
    -------------------------------------------------------------------------
DATA20_C
  Relative segment, address: D6C4 - D6E9 (0x26 bytes), align: 0
  Segment part 31.            Intra module refs:   PrintfCmdList
    -------------------------------------------------------------------------
DATA20_C
  Relative segment, address: D6EA - D713 (0x2a bytes), align: 0
  Segment part 32.            Intra module refs:   PrintfCmdList
    -------------------------------------------------------------------------
DATA20_C
  Relative segment, address: D714 - D73D (0x2a bytes), align: 0
  Segment part 33.            Intra module refs:   PrintfCmdList
    -------------------------------------------------------------------------
DATA20_C
  Relative segment, address: D73E - D763 (0x26 bytes), align: 0
  Segment part 34.            Intra module refs:   PrintfCmdList
    -------------------------------------------------------------------------
DATA20_C
  Relative segment, address: D764 - D789 (0x26 bytes), align: 0
  Segment part 35.            Intra module refs:   PrintfCmdList
    -------------------------------------------------------------------------
DATA20_C
  Relative segment, address: D78A - D7B1 (0x28 bytes), align: 0
  Segment part 36.            Intra module refs:   PrintfCmdList
    -------------------------------------------------------------------------
DATA20_C
  Relative segment, address: D7B2 - D7D9 (0x28 bytes), align: 0
  Segment part 37.            Intra module refs:   PrintfCmdList
    -------------------------------------------------------------------------
DATA20_C
  Relative segment, address: D7DA - D7FF (0x26 bytes), align: 0
  Segment part 38.            Intra module refs:   PrintfCmdList
    -------------------------------------------------------------------------
DATA20_C
  Relative segment, address: D800 - D825 (0x26 bytes), align: 0
  Segment part 39.            Intra module refs:   PrintfCmdList
    -------------------------------------------------------------------------
DATA20_C
  Relative segment, address: D826 - D84B (0x26 bytes), align: 0
  Segment part 40.            Intra module refs:   PrintfCmdList
    -------------------------------------------------------------------------
DATA20_C
  Relative segment, address: D84C - D871 (0x26 bytes), align: 0
  Segment part 41.            Intra module refs:   PrintfCmdList
    -------------------------------------------------------------------------
DATA20_C
  Relative segment, address: D872 - D897 (0x26 bytes), align: 0
  Segment part 42.            Intra module refs:   PrintfCmdList
    -------------------------------------------------------------------------
DATA20_C
  Relative segment, address: D898 - D8BD (0x26 bytes), align: 0
  Segment part 43.            Intra module refs:   PrintfCmdList
    -------------------------------------------------------------------------
DATA20_C
  Relative segment, address: D8BE - D8E3 (0x26 bytes), align: 0
  Segment part 44.            Intra module refs:   PrintfCmdList
    -------------------------------------------------------------------------
DATA20_C
  Relative segment, address: D8E4 - D90D (0x2a bytes), align: 0
  Segment part 45.            Intra module refs:   PrintfCmdList
    -------------------------------------------------------------------------
DATA20_C
  Relative segment, address: D90E - D937 (0x2a bytes), align: 0
  Segment part 46.            Intra module refs:   PrintfCmdList
    -------------------------------------------------------------------------
DATA20_C
  Relative segment, address: D938 - D95D (0x26 bytes), align: 0
  Segment part 47.            Intra module refs:   PrintfCmdList
    -------------------------------------------------------------------------
DATA20_C
  Relative segment, address: D95E - D983 (0x26 bytes), align: 0
  Segment part 48.            Intra module refs:   PrintfCmdList
    -------------------------------------------------------------------------
DATA20_C
  Relative segment, address: D984 - D9A8 (0x25 bytes), align: 0
  Segment part 49.            Intra module refs:   PrintfCmdList
    -------------------------------------------------------------------------
DATA20_C
  Relative segment, address: D9A9 - D9CD (0x25 bytes), align: 0
  Segment part 50.            Intra module refs:   PrintfCmdList
    -------------------------------------------------------------------------
DATA20_C
  Relative segment, address: D9CE - DA11 (0x44 bytes), align: 0
  Segment part 51.            Intra module refs:   CdmaDeletMsg
                                                   CmdBeiDouBckRecNumGet
                                                   CmdBeiDouBckRecNumSet
                                                   CmdBeiDouClrSendSuccess
                                                   CmdBeiDouGetSendSuccess
                                                   CmdBeiDouLocNumGet
                                                   CmdBeiDouRecNumGet
                                                   CmdBeiDouRecNumSet
                                                   CmdCdmaDebugClose
                                                   CmdCdmaDebugOpen
                                                   CmdCdmaInfoTest
                                                   CmdGetCdmaCSQ
                                                   CmdGetCdmaLocationNbr
                                                   CmdGetCdmaReceivingNbr
                                                   CmdGetCdmaTime
                                                   CmdGpsDebugClose
                                                   CmdGpsDebugOpen
                                                   CmdSetCdmaLocationNbr
                                                   CmdSetCdmaReceivingNbr
                                                   GetBatteryRemainPower
                                                   GetRtcTime
                                                   GetSendInfoGapTime
                                                   GetSystemType
                                                   GetSystemVersionInfo
                                                   PrintfCmdList
                                                   SetRtcTime
                                                   SetSendInfoGapTime
                                                   SetSystemType
                                                   SystemRunTimeClear
                                                   SystemRunTimeGet
                                                   UartHandShake
    -------------------------------------------------------------------------
DATA20_C
  Relative segment, address: DA12 - DA44 (0x33 bytes), align: 0
  Segment part 52.            Intra module refs:   UartHandShake
    -------------------------------------------------------------------------
DATA20_C
  Relative segment, address: DA45 - DA60 (0x1c bytes), align: 0
  Segment part 53.            Intra module refs:   GetSystemVersionInfo
    -------------------------------------------------------------------------
DATA20_C
  Relative segment, address: DA61 - DA7C (0x1c bytes), align: 0
  Segment part 54.            Intra module refs:   GetSystemVersionInfo
    -------------------------------------------------------------------------
DATA20_C
  Relative segment, address: DA7D - DA80 (0x4 bytes), align: 0
  Segment part 55.            Intra module refs:   GetSystemVersionInfo
    -------------------------------------------------------------------------
DATA20_C
  Relative segment, address: DA81 - DA9E (0x1e bytes), align: 0
  Segment part 56.            Intra module refs:   SetRtcTime
    -------------------------------------------------------------------------
DATA20_C
  Relative segment, address: DA9F - DAB8 (0x1a bytes), align: 0
  Segment part 57.            Intra module refs:   SetRtcTime
    -------------------------------------------------------------------------
DATA20_C
  Relative segment, address: DAB9 - DAD4 (0x1c bytes), align: 0
  Segment part 58.            Intra module refs:   GetRtcTime
    -------------------------------------------------------------------------
DATA20_C
  Relative segment, address: DAD5 - DB07 (0x33 bytes), align: 0
  Segment part 59.            Intra module refs:   SetSendInfoGapTime
    -------------------------------------------------------------------------
DATA20_C
  Relative segment, address: DB08 - DB20 (0x19 bytes), align: 0
  Segment part 60.            Intra module refs:   SetSendInfoGapTime
    -------------------------------------------------------------------------
DATA20_C
  Relative segment, address: DB21 - DB39 (0x19 bytes), align: 0
  Segment part 61.            Intra module refs:   SetSendInfoGapTime
    -------------------------------------------------------------------------
DATA20_C
  Relative segment, address: DB3A - DB52 (0x19 bytes), align: 0
  Segment part 62.            Intra module refs:   SetSendInfoGapTime
    -------------------------------------------------------------------------
DATA20_C
  Relative segment, address: DB53 - DB6B (0x19 bytes), align: 0
  Segment part 63.            Intra module refs:   SetSendInfoGapTime
    -------------------------------------------------------------------------
DATA20_C
  Relative segment, address: DB6C - DB84 (0x19 bytes), align: 0
  Segment part 64.            Intra module refs:   SetSendInfoGapTime
    -------------------------------------------------------------------------
DATA20_C
  Relative segment, address: DB85 - DB9D (0x19 bytes), align: 0
  Segment part 65.            Intra module refs:   SetSendInfoGapTime
    -------------------------------------------------------------------------
DATA20_C
  Relative segment, address: DB9E - DBCD (0x30 bytes), align: 0
  Segment part 66.            Intra module refs:   SetSendInfoGapTime
    -------------------------------------------------------------------------
DATA20_C
  Relative segment, address: DBCE - DC03 (0x36 bytes), align: 0
  Segment part 67.            Intra module refs:   SetSendInfoGapTime
    -------------------------------------------------------------------------
DATA20_C
  Relative segment, address: DC04 - DC30 (0x2d bytes), align: 0
  Segment part 68.            Intra module refs:   CmdBeiDouBckRecNumSet
                                                   CmdBeiDouRecNumSet
                                                   CmdSetCdmaLocationNbr
                                                   SetSendInfoGapTime
                                                   SetSystemType
    -------------------------------------------------------------------------
DATA20_C
  Relative segment, address: DC31 - DC56 (0x26 bytes), align: 0
  Segment part 69.            Intra module refs:   SetSendInfoGapTime
    -------------------------------------------------------------------------
DATA20_C
  Relative segment, address: DC57 - DC5E (0x8 bytes), align: 0
  Segment part 70.            Intra module refs:   GetSendInfoGapTime
    -------------------------------------------------------------------------
DATA20_C
  Relative segment, address: DC5F - DC77 (0x19 bytes), align: 0
  Segment part 71.            Intra module refs:   GetSendInfoGapTime
    -------------------------------------------------------------------------
DATA20_C
  Relative segment, address: DC78 - DC98 (0x21 bytes), align: 0
  Segment part 72.            Intra module refs:   GetSendInfoGapTime
    -------------------------------------------------------------------------
DATA20_C
  Relative segment, address: DC99 - DCC3 (0x2b bytes), align: 0
  Segment part 73.            Intra module refs:   SetSystemType
    -------------------------------------------------------------------------
DATA20_C
  Relative segment, address: DCC4 - DCD7 (0x14 bytes), align: 0
  Segment part 74.            Intra module refs:   SetSystemType
    -------------------------------------------------------------------------
DATA20_C
  Relative segment, address: DCD8 - DCEB (0x14 bytes), align: 0
  Segment part 75.            Intra module refs:   SetSystemType
    -------------------------------------------------------------------------
DATA20_C
  Relative segment, address: DCEC - DD16 (0x2b bytes), align: 0
  Segment part 76.            Intra module refs:   SetSystemType
    -------------------------------------------------------------------------
DATA20_C
  Relative segment, address: DD17 - DD19 (0x3 bytes), align: 0
  Segment part 77.            Intra module refs:   SetSystemType
    -------------------------------------------------------------------------
DATA20_C
  Relative segment, address: DD1A - DD1C (0x3 bytes), align: 0
  Segment part 78.            Intra module refs:   SetSystemType
    -------------------------------------------------------------------------
DATA20_C
  Relative segment, address: DD1D - DD51 (0x35 bytes), align: 0
  Segment part 79.            Intra module refs:   SetSystemType
    -------------------------------------------------------------------------
DATA20_C
  Relative segment, address: DD52 - DD73 (0x22 bytes), align: 0
  Segment part 80.            Intra module refs:   SetSystemType
    -------------------------------------------------------------------------
DATA20_C
  Relative segment, address: DD74 - DD92 (0x1f bytes), align: 0
  Segment part 81.            Intra module refs:   GetSystemType
    -------------------------------------------------------------------------
DATA20_C
  Relative segment, address: DD93 - DDB3 (0x21 bytes), align: 0
  Segment part 82.            Intra module refs:   SystemRunTimeClear
    -------------------------------------------------------------------------
DATA20_C
  Relative segment, address: DDB4 - DDB6 (0x3 bytes), align: 0
  Segment part 83.            Intra module refs:   CmdBeiDouGetSendSuccess
                                                   SystemRunTimeGet
    -------------------------------------------------------------------------
DATA20_C
  Relative segment, address: DDB7 - DDDA (0x24 bytes), align: 0
  Segment part 84.            Intra module refs:   SystemRunTimeGet
    -------------------------------------------------------------------------
DATA20_C
  Relative segment, address: DDDB - DDDD (0x3 bytes), align: 0
  Segment part 85.            Intra module refs:   CmdBeiDouBckRecNumGet
                                                   CmdBeiDouGetSendSuccess
                                                   CmdBeiDouLocNumGet
                                                   CmdBeiDouRecNumGet
                                                   CmdGetCdmaTime
                                                   SystemRunTimeGet
    -------------------------------------------------------------------------
DATA20_C
  Relative segment, address: DDDE - DE04 (0x27 bytes), align: 0
  Segment part 86.            Intra module refs:   UseBeiDouMode
    -------------------------------------------------------------------------
DATA20_C
  Relative segment, address: DE05 - DE29 (0x25 bytes), align: 0
  Segment part 87.            Intra module refs:   UseCdmaMode
    -------------------------------------------------------------------------
DATA20_C
  Relative segment, address: DE2A - DE4B (0x22 bytes), align: 0
  Segment part 88.            Intra module refs:   CmdGpsDebugClose
    -------------------------------------------------------------------------
DATA20_C
  Relative segment, address: DE4C - DE6C (0x21 bytes), align: 0
  Segment part 89.            Intra module refs:   CmdGpsDebugOpen
    -------------------------------------------------------------------------
DATA20_C
  Relative segment, address: DE6D - DE8A (0x1e bytes), align: 0
  Segment part 91.            Intra module refs:   CmdBeiDouLocNumGet
    -------------------------------------------------------------------------
DATA20_C
  Relative segment, address: DE8B - DEBC (0x32 bytes), align: 0
  Segment part 92.            Intra module refs:   CmdBeiDouRecNumSet
    -------------------------------------------------------------------------
DATA20_C
  Relative segment, address: DEBD - DEF4 (0x38 bytes), align: 0
  Segment part 93.            Intra module refs:   CmdBeiDouRecNumSet
    -------------------------------------------------------------------------
DATA20_C
  Relative segment, address: DEF5 - DEF8 (0x4 bytes), align: 0
  Segment part 94.            Intra module refs:   CmdBeiDouBckRecNumSet
                                                   CmdBeiDouRecNumSet
    -------------------------------------------------------------------------
DATA20_C
  Relative segment, address: DEF9 - DF26 (0x2e bytes), align: 0
  Segment part 95.            Intra module refs:   CmdBeiDouRecNumSet
    -------------------------------------------------------------------------
DATA20_C
  Relative segment, address: DF27 - DF45 (0x1f bytes), align: 0
  Segment part 96.            Intra module refs:   CmdBeiDouRecNumGet
    -------------------------------------------------------------------------
DATA20_C
  Relative segment, address: DF46 - DF7A (0x35 bytes), align: 0
  Segment part 97.            Intra module refs:   CmdBeiDouBckRecNumSet
    -------------------------------------------------------------------------
DATA20_C
  Relative segment, address: DF7B - DFB7 (0x3d bytes), align: 0
  Segment part 98.            Intra module refs:   CmdBeiDouBckRecNumSet
    -------------------------------------------------------------------------
DATA20_C
  Relative segment, address: DFB8 - DFEA (0x33 bytes), align: 0
  Segment part 99.            Intra module refs:   CmdBeiDouBckRecNumSet
    -------------------------------------------------------------------------
DATA20_C
  Relative segment, address: DFEB - E00E (0x24 bytes), align: 0
  Segment part 100.           Intra module refs:   CmdBeiDouBckRecNumGet
    -------------------------------------------------------------------------
DATA20_C
  Relative segment, address: E00F - E029 (0x1b bytes), align: 0
  Segment part 101.           Intra module refs:   CmdBeiDouGetSendSuccess
    -------------------------------------------------------------------------
DATA20_C
  Relative segment, address: E02A - E04C (0x23 bytes), align: 0
  Segment part 102.           Intra module refs:   CmdBeiDouGetSendSuccess
    -------------------------------------------------------------------------
DATA20_C
  Relative segment, address: E04D - E06A (0x1e bytes), align: 0
  Segment part 103.           Intra module refs:   CmdBeiDouGetSendSuccess
    -------------------------------------------------------------------------
DATA20_C
  Relative segment, address: E06B - E093 (0x29 bytes), align: 0
  Segment part 104.           Intra module refs:   CmdBeiDouClrSendSuccess
    -------------------------------------------------------------------------
DATA20_C
  Relative segment, address: E094 - E0CD (0x3a bytes), align: 0
  Segment part 105.           Intra module refs:   CmdBeiDouSendMsg
    -------------------------------------------------------------------------
DATA20_C
  Relative segment, address: E0CE - E0E2 (0x15 bytes), align: 0
  Segment part 106.           Intra module refs:   CmdBeiDouSendMsg
    -------------------------------------------------------------------------
DATA20_C
  Relative segment, address: E0E3 - E105 (0x23 bytes), align: 0
  Segment part 107.           Intra module refs:   CmdCdmaDebugClose
    -------------------------------------------------------------------------
DATA20_C
  Relative segment, address: E106 - E126 (0x21 bytes), align: 0
  Segment part 108.           Intra module refs:   CmdCdmaDebugOpen
    -------------------------------------------------------------------------
DATA20_C
  Relative segment, address: E127 - E160 (0x3a bytes), align: 0
  Segment part 109.           Intra module refs:   CmdGetCdmaCSQ
                                                   CmdGetCdmaLocationNbr
                                                   CmdGetCdmaTime
                                                   CmdSetCdmaLocationNbr
    -------------------------------------------------------------------------
DATA20_C
  Relative segment, address: E161 - E17D (0x1d bytes), align: 0
  Segment part 110.           Intra module refs:   CmdGetCdmaTime
    -------------------------------------------------------------------------
DATA20_C
  Relative segment, address: E17E - E1B2 (0x35 bytes), align: 0
  Segment part 111.           Intra module refs:   CmdSetCdmaLocationNbr
    -------------------------------------------------------------------------
DATA20_C
  Relative segment, address: E1B3 - E1D7 (0x25 bytes), align: 0
  Segment part 112.           Intra module refs:   CmdSetCdmaLocationNbr
    -------------------------------------------------------------------------
DATA20_C
  Relative segment, address: E1D8 - E20E (0x37 bytes), align: 0
  Segment part 113.           Intra module refs:   CdmaDeletMsg
                                                   CmdCdmaInfoTest
                                                   CmdSetCdmaLocationNbr
                                                   CmdSetCdmaReceivingNbr
    -------------------------------------------------------------------------
DATA20_C
  Relative segment, address: E20F - E239 (0x2b bytes), align: 0
  Segment part 114.           Intra module refs:   CmdSetCdmaLocationNbr
    -------------------------------------------------------------------------
DATA20_C
  Relative segment, address: E23A - E25F (0x26 bytes), align: 0
  Segment part 115.           Intra module refs:   CmdSetCdmaLocationNbr
    -------------------------------------------------------------------------
DATA20_C
  Relative segment, address: E260 - E27B (0x1c bytes), align: 0
  Segment part 116.           Intra module refs:   CmdGetCdmaLocationNbr
    -------------------------------------------------------------------------
DATA20_C
  Relative segment, address: E27C - E2A1 (0x26 bytes), align: 0
  Segment part 117.           Intra module refs:   CmdGetCdmaLocationNbr
    -------------------------------------------------------------------------
DATA20_C
  Relative segment, address: E2A2 - E2C6 (0x25 bytes), align: 0
  Segment part 118.           Intra module refs:   CmdSetCdmaReceivingNbr
    -------------------------------------------------------------------------
DATA20_C
  Relative segment, address: E2C7 - E2FA (0x34 bytes), align: 0
  Segment part 119.           Intra module refs:   CmdSetCdmaReceivingNbr
    -------------------------------------------------------------------------
DATA20_C
  Relative segment, address: E2FB - E326 (0x2c bytes), align: 0
  Segment part 120.           Intra module refs:   CmdSetCdmaReceivingNbr
    -------------------------------------------------------------------------
DATA20_C
  Relative segment, address: E327 - E34D (0x27 bytes), align: 0
  Segment part 121.           Intra module refs:   CmdSetCdmaReceivingNbr
    -------------------------------------------------------------------------
DATA20_C
  Relative segment, address: E34E - E36E (0x21 bytes), align: 0
  Segment part 122.           Intra module refs:   CmdGetCdmaReceivingNbr
    -------------------------------------------------------------------------
DATA20_C
  Relative segment, address: E36F - E38A (0x1c bytes), align: 0
  Segment part 127.           Intra module refs:   CmdGetCdmaCSQ
    -------------------------------------------------------------------------
DATA20_C
  Relative segment, address: E38B - E3C2 (0x38 bytes), align: 0
  Segment part 128.           Intra module refs:   CdmaDeletMsg
                                                   CmdCdmaInfoTest
    -------------------------------------------------------------------------
DATA20_C
  Relative segment, address: E3C3 - E3EF (0x2d bytes), align: 0
  Segment part 129.           Intra module refs:   CmdCdmaInfoTest
    -------------------------------------------------------------------------
DATA20_C
  Relative segment, address: E3F0 - E412 (0x23 bytes), align: 0
  Segment part 130.           Intra module refs:   CmdCdmaInfoTest
    -------------------------------------------------------------------------
DATA20_C
  Relative segment, address: E413 - E447 (0x35 bytes), align: 0
  Segment part 131.           Intra module refs:   CmdCdmaInfoTest
    -------------------------------------------------------------------------
DATA20_C
  Relative segment, address: E448 - E45F (0x18 bytes), align: 0
  Segment part 132.           Intra module refs:   CmdCdmaInfoTest
    -------------------------------------------------------------------------
DATA20_C
  Relative segment, address: E460 - E483 (0x24 bytes), align: 0
  Segment part 133.           Intra module refs:   CmdCdmaInfoTest
    -------------------------------------------------------------------------
DATA20_C
  Relative segment, address: E484 - E4A2 (0x1f bytes), align: 0
  Segment part 134.           Intra module refs:   CmdCdmaInfoTest
    -------------------------------------------------------------------------
DATA20_C
  Relative segment, address: E4A3 - E4CC (0x2a bytes), align: 0
  Segment part 135.           Intra module refs:   CdmaDeletMsg
    -------------------------------------------------------------------------
DATA20_C
  Relative segment, address: E4CD - E4FD (0x31 bytes), align: 0
  Segment part 136.           Intra module refs:   CdmaDeletMsg
    -------------------------------------------------------------------------
DATA20_C
  Relative segment, address: E4FE - E519 (0x1c bytes), align: 0
  Segment part 137.           Intra module refs:   CdmaDeletMsg
    -------------------------------------------------------------------------
DATA20_C
  Relative segment, address: E51A - E538 (0x1f bytes), align: 0
  Segment part 138.           Intra module refs:   CdmaDeletMsg
    -------------------------------------------------------------------------
DATA20_C
  Relative segment, address: E539 - E56B (0x33 bytes), align: 0
  Segment part 139.           Intra module refs:   CdmaDeletMsg
    -------------------------------------------------------------------------
DATA20_C
  Relative segment, address: E56C - E591 (0x26 bytes), align: 0
  Segment part 140.           Intra module refs:   CdmaDeletMsg
    -------------------------------------------------------------------------
DATA20_C
  Relative segment, address: E592 - E5B2 (0x21 bytes), align: 0
  Segment part 141.           Intra module refs:   CdmaDeletMsg
    -------------------------------------------------------------------------
DATA20_C
  Relative segment, address: E5B3 - E5BD (0xb bytes), align: 0
  Segment part 142.           Intra module refs:   DebugCmdInit
    -------------------------------------------------------------------------
DATA20_Z
  Relative segment, address: 1C60 - 1C67 (0x8 bytes), align: 1
  Segment part 144.           Intra module refs:   DebugCmdAssemble
                                                   DebugCmdInit
                                                   DebugCmdRun
           ENTRY                   ADDRESS         REF BY
           =====                   =======         ======
           sDebugCmdCb             1C60 
    -------------------------------------------------------------------------
DATA20_Z
  Relative segment, address: 1C68 - 1D67 (0x100 bytes), align: 1
  Segment part 145.           Intra module refs:   CmdHandlerInit
                                                   DebugCmdRun
           ENTRY                   ADDRESS         REF BY
           =====                   =======         ======
           apCmdHandlerList        1C68 
    -------------------------------------------------------------------------
DATA20_C
  Relative segment, address: E5BE - E5C7 (0xa bytes), align: 0
  Segment part 146.           Intra module refs:   GetSystemVersionInfo
           ENTRY                   ADDRESS         REF BY
           =====                   =======         ======
           au8LastTime             E5BE 
    -------------------------------------------------------------------------
DATA20_C
  Relative segment, address: E5C8 - E5D5 (0xe bytes), align: 0
  Segment part 147.           Intra module refs:   GetSystemVersionInfo
           ENTRY                   ADDRESS         REF BY
           =====                   =======         ======
           au8LastDate             E5C8 
    -------------------------------------------------------------------------
<CODE> 1 (was CODE)
  Relative segment, address: 6B60 - 6D27 (0x1c8 bytes), align: 1
  Segment part 193.           Intra module refs:   CmdHandlerInit
           ENTRY                   ADDRESS         REF BY
           =====                   =======         ======
           PrintfCmdList           6B60 
               calls direct
               CSTACK = 00000000 ( 00000004 )
    -------------------------------------------------------------------------
<CODE> 1 (was CODE)
  Relative segment, address: CC36 - CC4D (0x18 bytes), align: 1
  Segment part 192.           Intra module refs:   CmdHandlerInit
           ENTRY                   ADDRESS         REF BY
           =====                   =======         ======
           UartHandShake           CC36 
               calls direct
               CSTACK = 00000000 ( 00000004 )
    -------------------------------------------------------------------------
<CODE> 1 (was CODE)
  Relative segment, address: A2D0 - A387 (0xb8 bytes), align: 1
  Segment part 191.           Intra module refs:   CmdHandlerInit
           ENTRY                   ADDRESS         REF BY
           =====                   =======         ======
           GetSystemVersionInfo    A2D0 
               calls direct
               CSTACK = 00000000 ( 00000024 )
    -------------------------------------------------------------------------
<CODE> 1 (was CODE)
  Relative segment, address: C73A - C763 (0x2a bytes), align: 1
  Segment part 190.           Intra module refs:   CmdHandlerInit
           ENTRY                   ADDRESS         REF BY
           =====                   =======         ======
           SetRtcTime              C73A            SendInfoToCenter (Communication)
               calls direct
               CSTACK = 00000000 ( 00000004 )
    -------------------------------------------------------------------------
<CODE> 1 (was CODE)
  Relative segment, address: 63EC - 65EB (0x200 bytes), align: 1
  Segment part 189.           Intra module refs:   CmdHandlerInit
           ENTRY                   ADDRESS         REF BY
           =====                   =======         ======
           GetRtcTime              63EC 
               calls direct
               CSTACK = 00000000 ( 00000028 )
    -------------------------------------------------------------------------
<CODE> 1 (was CODE)
  Relative segment, address: CC7E - CC93 (0x16 bytes), align: 1
  Segment part 188.           Intra module refs:   CmdHandlerInit
           ENTRY                   ADDRESS         REF BY
           =====                   =======         ======
           GetBatteryRemainPower   CC7E 
               calls direct
               CSTACK = 00000000 ( 00000004 )
    -------------------------------------------------------------------------
<CODE> 1 (was CODE)
  Relative segment, address: 8DBC - 8ED7 (0x11c bytes), align: 1
  Segment part 187.           Intra module refs:   CmdHandlerInit
           ENTRY                   ADDRESS         REF BY
           =====                   =======         ======
           SetSendInfoGapTime      8DBC 
               calls direct
               CSTACK = 00000000 ( 0000000A )
    -------------------------------------------------------------------------
<CODE> 1 (was CODE)
  Relative segment, address: 9D48 - 9E1F (0xd8 bytes), align: 1
  Segment part 186.           Intra module refs:   CmdHandlerInit
           ENTRY                   ADDRESS         REF BY
           =====                   =======         ======
           GetSendInfoGapTime      9D48 
               calls direct
               CSTACK = 00000000 ( 0000001C )
    -------------------------------------------------------------------------
<CODE> 1 (was CODE)
  Relative segment, address: 8680 - 87B9 (0x13a bytes), align: 1
  Segment part 185.           Intra module refs:   CmdHandlerInit
           ENTRY                   ADDRESS         REF BY
           =====                   =======         ======
           SetSystemType           8680 
               calls direct
               CSTACK = 00000000 ( 0000000E )
    -------------------------------------------------------------------------
<CODE> 1 (was CODE)
  Relative segment, address: B7B2 - B819 (0x68 bytes), align: 1
  Segment part 184.           Intra module refs:   CmdHandlerInit
           ENTRY                   ADDRESS         REF BY
           =====                   =======         ======
           GetSystemType           B7B2 
               calls direct
               CSTACK = 00000000 ( 00000008 )
    -------------------------------------------------------------------------
<CODE> 1 (was CODE)
  Relative segment, address: C6B8 - C6E3 (0x2c bytes), align: 1
  Segment part 183.           Intra module refs:   CmdHandlerInit
           ENTRY                   ADDRESS         REF BY
           =====                   =======         ======
           SystemRunTimeClear      C6B8 
               calls direct
               CSTACK = 00000000 ( 00000004 )
    -------------------------------------------------------------------------
<CODE> 1 (was CODE)
  Relative segment, address: B238 - B2B3 (0x7c bytes), align: 1
  Segment part 182.           Intra module refs:   CmdHandlerInit
           ENTRY                   ADDRESS         REF BY
           =====                   =======         ======
           SystemRunTimeGet        B238 
               calls direct
               CSTACK = 00000000 ( 0000001C )
    -------------------------------------------------------------------------
<CODE> 1 (was CODE)
  Relative segment, address: C958 - C979 (0x22 bytes), align: 1
  Segment part 181.           Intra module refs:   CmdHandlerInit
           ENTRY                   ADDRESS         REF BY
           =====                   =======         ======
           UseBeiDouMode           C958 
               calls direct
               CSTACK = 00000000 ( 00000004 )
    -------------------------------------------------------------------------
<CODE> 1 (was CODE)
  Relative segment, address: C936 - C957 (0x22 bytes), align: 1
  Segment part 180.           Intra module refs:   CmdHandlerInit
           ENTRY                   ADDRESS         REF BY
           =====                   =======         ======
           UseCdmaMode             C936 
               calls direct
               CSTACK = 00000000 ( 00000004 )
    -------------------------------------------------------------------------
<CODE> 1 (was CODE)
  Relative segment, address: C8A6 - C8CB (0x26 bytes), align: 1
  Segment part 179.           Intra module refs:   CmdHandlerInit
           ENTRY                   ADDRESS         REF BY
           =====                   =======         ======
           UseAutoMode             C8A6 
               calls direct
               CSTACK = 00000000 ( 00000004 )
    -------------------------------------------------------------------------
<CODE> 1 (was CODE)
  Relative segment, address: C9DA - C9F7 (0x1e bytes), align: 1
  Segment part 178.           Intra module refs:   CmdHandlerInit
           ENTRY                   ADDRESS         REF BY
           =====                   =======         ======
           CmdGpsDebugClose        C9DA 
               calls direct
               CSTACK = 00000000 ( 00000004 )
    -------------------------------------------------------------------------
<CODE> 1 (was CODE)
  Relative segment, address: C9F8 - CA15 (0x1e bytes), align: 1
  Segment part 177.           Intra module refs:   CmdHandlerInit
           ENTRY                   ADDRESS         REF BY
           =====                   =======         ======
           CmdGpsDebugOpen         C9F8 
               calls direct
               CSTACK = 00000000 ( 00000004 )
    -------------------------------------------------------------------------
<CODE> 1 (was CODE)
  Relative segment, address: B1B8 - B237 (0x80 bytes), align: 1
  Segment part 169.           Intra module refs:   CmdBeiDouBckRecNumGet
                                                   CmdBeiDouLocNumGet
                                                   CmdBeiDouRecNumGet
           ENTRY                   ADDRESS         REF BY
           =====                   =======         ======
           CmdIntToString          B1B8 
               CSTACK = 00000000 ( 00000026 )
    -------------------------------------------------------------------------
<CODE> 1 (was CODE)
  Relative segment, address: A9FE - AA93 (0x96 bytes), align: 1
  Segment part 175.           Intra module refs:   CmdHandlerInit
           ENTRY                   ADDRESS         REF BY
           =====                   =======         ======
           CmdBeiDouLocNumGet      A9FE 
               calls direct
               CSTACK = 00000000 ( 0000001C )
    -------------------------------------------------------------------------
<CODE> 1 (was CODE)
  Relative segment, address: C168 - C19F (0x38 bytes), align: 1
  Segment part 171.           Intra module refs:   CmdBeiDouBckRecNumSet
                                                   CmdBeiDouRecNumSet
           ENTRY                   ADDRESS         REF BY
           =====                   =======         ======
           My_atoi                 C168 
               CSTACK = 00000000 ( 00000014 )
    -------------------------------------------------------------------------
<CODE> 1 (was CODE)
  Relative segment, address: 7DB6 - 7EF9 (0x144 bytes), align: 1
  Segment part 174.           Intra module refs:   CmdHandlerInit
           ENTRY                   ADDRESS         REF BY
           =====                   =======         ======
           CmdBeiDouRecNumSet      7DB6 
               calls direct
               CSTACK = 00000000 ( 00000020 )
    -------------------------------------------------------------------------
<CODE> 1 (was CODE)
  Relative segment, address: ABC0 - AC55 (0x96 bytes), align: 1
  Segment part 173.           Intra module refs:   CmdHandlerInit
           ENTRY                   ADDRESS         REF BY
           =====                   =======         ======
           CmdBeiDouRecNumGet      ABC0 
               calls direct
               CSTACK = 00000000 ( 0000001A )
    -------------------------------------------------------------------------
<CODE> 1 (was CODE)
  Relative segment, address: 7EFA - 803D (0x144 bytes), align: 1
  Segment part 172.           Intra module refs:   CmdHandlerInit
           ENTRY                   ADDRESS         REF BY
           =====                   =======         ======
           CmdBeiDouBckRecNumSet   7EFA 
               calls direct
               CSTACK = 00000000 ( 00000020 )
    -------------------------------------------------------------------------
<CODE> 1 (was CODE)
  Relative segment, address: AA94 - AB29 (0x96 bytes), align: 1
  Segment part 170.           Intra module refs:   CmdHandlerInit
           ENTRY                   ADDRESS         REF BY
           =====                   =======         ======
           CmdBeiDouBckRecNumGet   AA94 
               calls direct
               CSTACK = 00000000 ( 0000001A )
    -------------------------------------------------------------------------
<CODE> 1 (was CODE)
  Relative segment, address: 8FEE - 90FD (0x110 bytes), align: 1
  Segment part 168.           Intra module refs:   CmdHandlerInit
           ENTRY                   ADDRESS         REF BY
           =====                   =======         ======
           CmdBeiDouGetSendSuccess
                                   8FEE 
               calls direct
               CSTACK = 00000000 ( 0000002C )
    -------------------------------------------------------------------------
<CODE> 1 (was CODE)
  Relative segment, address: BF40 - BF81 (0x42 bytes), align: 1
  Segment part 167.           Intra module refs:   CmdHandlerInit
           ENTRY                   ADDRESS         REF BY
           =====                   =======         ======
           CmdBeiDouClrSendSuccess
                                   BF40 
               calls direct
               CSTACK = 00000000 ( 00000004 )
    -------------------------------------------------------------------------
<CODE> 1 (was CODE)
  Relative segment, address: B74A - B7B1 (0x68 bytes), align: 1
  Segment part 166.           Intra module refs:   CmdHandlerInit
           ENTRY                   ADDRESS         REF BY
           =====                   =======         ======
           CmdBeiDouSendMsg        B74A 
               calls direct
               CSTACK = 00000000 ( 00000024 )
    -------------------------------------------------------------------------
<CODE> 1 (was CODE)
  Relative segment, address: CAAC - CAC9 (0x1e bytes), align: 1
  Segment part 165.           Intra module refs:   CmdHandlerInit
           ENTRY                   ADDRESS         REF BY
           =====                   =======         ======
           CmdCdmaDebugClose       CAAC 
               calls direct
               CSTACK = 00000000 ( 00000004 )
    -------------------------------------------------------------------------
<CODE> 1 (was CODE)
  Relative segment, address: C9BC - C9D9 (0x1e bytes), align: 1
  Segment part 164.           Intra module refs:   CmdHandlerInit
           ENTRY                   ADDRESS         REF BY
           =====                   =======         ======
           CmdCdmaDebugOpen        C9BC 
               calls direct
               CSTACK = 00000000 ( 00000004 )
    -------------------------------------------------------------------------
<CODE> 1 (was CODE)
  Relative segment, address: BC64 - BCB3 (0x50 bytes), align: 1
  Segment part 163.           Intra module refs:   CmdHandlerInit
           ENTRY                   ADDRESS         REF BY
           =====                   =======         ======
           CmdGetCdmaTime          BC64 
               calls direct
               CSTACK = 00000000 ( 00000026 )
    -------------------------------------------------------------------------
<CODE> 1 (was CODE)
  Relative segment, address: 7C6A - 7DB5 (0x14c bytes), align: 1
  Segment part 162.           Intra module refs:   CmdHandlerInit
           ENTRY                   ADDRESS         REF BY
           =====                   =======         ======
           CmdSetCdmaLocationNbr   7C6A 
               calls direct
               CSTACK = 00000000 ( 0000001C )
    -------------------------------------------------------------------------
<CODE> 1 (was CODE)
  Relative segment, address: B87E - B8E1 (0x64 bytes), align: 1
  Segment part 161.           Intra module refs:   CmdHandlerInit
           ENTRY                   ADDRESS         REF BY
           =====                   =======         ======
           CmdGetCdmaLocationNbr   B87E 
               calls direct
               CSTACK = 00000000 ( 00000018 )
    -------------------------------------------------------------------------
<CODE> 1 (was CODE)
  Relative segment, address: 8C96 - 8DBB (0x126 bytes), align: 1
  Segment part 160.           Intra module refs:   CmdHandlerInit
           ENTRY                   ADDRESS         REF BY
           =====                   =======         ======
           CmdSetCdmaReceivingNbr
                                   8C96 
               calls direct
               CSTACK = 00000000 ( 0000001C )
    -------------------------------------------------------------------------
<CODE> 1 (was CODE)
  Relative segment, address: C040 - C07D (0x3e bytes), align: 1
  Segment part 159.           Intra module refs:   CmdHandlerInit
           ENTRY                   ADDRESS         REF BY
           =====                   =======         ======
           CmdGetCdmaReceivingNbr
                                   C040 
               calls direct
               CSTACK = 00000000 ( 00000018 )
    -------------------------------------------------------------------------
<CODE> 1 (was CODE)
  Relative segment, address: B66C - B6DD (0x72 bytes), align: 1
  Segment part 156.           Intra module refs:   CmdHandlerInit
           ENTRY                   ADDRESS         REF BY
           =====                   =======         ======
           CmdGetCdmaCSQ           B66C 
               calls direct
               CSTACK = 00000000 ( 0000000C )
    -------------------------------------------------------------------------
<CODE> 1 (was CODE)
  Relative segment, address: 8544 - 867F (0x13c bytes), align: 1
  Segment part 155.           Intra module refs:   CmdHandlerInit
           ENTRY                   ADDRESS         REF BY
           =====                   =======         ======
           CmdCdmaInfoTest         8544 
               calls direct
               CSTACK = 00000000 ( 0000001C )
    -------------------------------------------------------------------------
<CODE> 1 (was CODE)
  Relative segment, address: 7B18 - 7C69 (0x152 bytes), align: 1
  Segment part 154.           Intra module refs:   CmdHandlerInit
           ENTRY                   ADDRESS         REF BY
           =====                   =======         ======
           CdmaDeletMsg            7B18 
               calls direct
               CSTACK = 00000000 ( 00000012 )
    -------------------------------------------------------------------------
<CODE> 1 (was CODE)
  Relative segment, address: CF08 - CF0B (0x4 bytes), align: 1
  Segment part 153.           Intra module refs:   CmdHandlerInit
           ENTRY                   ADDRESS         REF BY
           =====                   =======         ======
           CmdFlashLedDisable      CF08 
               calls direct
               CSTACK = 00000000 ( 00000004 )
    -------------------------------------------------------------------------
<CODE> 1 (was CODE)
  Relative segment, address: CF00 - CF03 (0x4 bytes), align: 1
  Segment part 152.           Intra module refs:   CmdHandlerInit
           ENTRY                   ADDRESS         REF BY
           =====                   =======         ======
           CmdFlashLedEnable       CF00 
               calls direct
               CSTACK = 00000000 ( 00000004 )
    -------------------------------------------------------------------------
<CODE> 1 (was CODE)
  Relative segment, address: 88F4 - 8A2D (0x13a bytes), align: 1
  Segment part 150.           Intra module refs:   DebugCmdInit
           ENTRY                   ADDRESS         REF BY
           =====                   =======         ======
           CmdHandlerInit          88F4 
               calls direct
               CSTACK = 00000000 ( 00000004 )
    -------------------------------------------------------------------------
<CODE> 1 (was CODE)
  Relative segment, address: 9AB0 - 9B8F (0xe0 bytes), align: 1
  Segment part 148.           Intra module refs:   DebugCmdRun
           ENTRY                   ADDRESS         REF BY
           =====                   =======         ======
           DebugCmdAssemble        9AB0 
               CSTACK = 00000000 ( 00000004 )
    -------------------------------------------------------------------------
<CODE> 1 (was CODE)
  Relative segment, address: BE2E - BE73 (0x46 bytes), align: 1
  Segment part 151.
           ENTRY                   ADDRESS         REF BY
           =====                   =======         ======
           DebugCmdInit            BE2E            main (main)
               calls direct
               CSTACK = 00000000 ( 00000004 )
    -------------------------------------------------------------------------
<CODE> 1 (was CODE)
  Relative segment, address: A084 - A14B (0xc8 bytes), align: 1
  Segment part 149.
           ENTRY                   ADDRESS         REF BY
           =====                   =======         ======
           DebugCmdRun             A084            main (main)
               calls direct and indirect
               CSTACK = 00000000 ( 00000004 )

    *************************************************************************

  FILE NAME : F:\work\01.Location\Location\Project\Project_5438_New\Debug\Obj\GpsParse.r43
  PROGRAM MODULE, NAME : GpsParse

  SEGMENTS IN THE MODULE
  ======================
DATA16_AN
  Relative segment, address: 0282 - 0283 (0x2 bytes), align: 0
  Segment part 1. ROOT.       Intra module refs:   EnterLowPower (SystemCtl)
                                                   GpsCmdRun
                                                   LpEnterCfg (SystemCtl)
                                                   ReservedPinCfg (SystemCtl)
                                                   SystemInit (SystemCtl)
           ENTRY                   ADDRESS         REF BY
           =====                   =======         ======
           _A_PEOUT_L              0282 
           LOCAL                   ADDRESS         
           =====                   =======         
           PEOUT                   0282 
           PEOUT_H                 0283 
           PEOUT_L                 0282 
    -------------------------------------------------------------------------
DATA20_Z
  Relative segment, address: 1F98 - 1F98 (0x1 bytes), align: 0
  Segment part 15.            Intra module refs:   GpsCmdRun
           ENTRY                   ADDRESS         REF BY
           =====                   =======         ======
           g_bGpsCompleted         1F98            PORT1_ISR (SystemCtl)
                                                   SendInfoToCenter (Communication)
    -------------------------------------------------------------------------
DATA20_Z
  Relative segment, address: 1F99 - 1F99 (0x1 bytes), align: 0
  Segment part 16.            Intra module refs:   GpsCmdInit
                                                   GpsCmdRun
           ENTRY                   ADDRESS         REF BY
           =====                   =======         ======
           g_bGpsFirstRx           1F99 
    -------------------------------------------------------------------------
DATA20_Z
  Relative segment, address: 1F9A - 1F9A (0x1 bytes), align: 0
  Segment part 17.            Intra module refs:   GpsCmdInit
                                                   GpsCmdRun
           ENTRY                   ADDRESS         REF BY
           =====                   =======         ======
           g_s8GpsFirstDog         1F9A            EnterLowPower (SystemCtl)
    -------------------------------------------------------------------------
<CODE> 1 (was CODE)
  Relative segment, address: CEB2 - CEBB (0xa bytes), align: 1
  Segment part 38.            Intra module refs:   GpsInfoProcess
           ENTRY                   ADDRESS         REF BY
           =====                   =======         ======
           atof                    CEB2 
               calls direct
               CSTACK = 00000000 ( 00000004 )
    -------------------------------------------------------------------------
DATA20_Z
  Relative segment, address: 1F9B - 2062 (0xc8 bytes), align: 0
  Segment part 18.            Intra module refs:   CalibratLocation
                                                   GpsInfoProcess
           ENTRY                   ADDRESS         REF BY
           =====                   =======         ======
           sGpsInfoBuf             1F9B 
    -------------------------------------------------------------------------
DATA20_Z
  Relative segment, address: 1D68 - 1D75 (0xe bytes), align: 1
  Segment part 19.            Intra module refs:   CalibratLocation
                                                   CreatCmdIndex
                                                   GpsCmdAssemble
                                                   GpsCmdInit
                                                   GpsCmdRun
                                                   GpsInfoProcess
                                                   RealCmdProcess
           ENTRY                   ADDRESS         REF BY
           =====                   =======         ======
           sGpsCmdCb               1D68 
    -------------------------------------------------------------------------
DATA20_I
  Relative segment, address: 1C00 - 1C0F (0x10 bytes), align: 1
  Segment part 20.            Intra module refs:   NmeaPackType
           ENTRY                   ADDRESS         REF BY
           =====                   =======         ======
           pGpsCmd                 1C00 
    -------------------------------------------------------------------------
DATA20_C
  Relative segment, address: E5D6 - E5DC (0x7 bytes), align: 0
  Segment part 3.             Intra module refs:   Segment part 21
    -------------------------------------------------------------------------
DATA20_C
  Relative segment, address: E5DD - E5E3 (0x7 bytes), align: 0
  Segment part 4.             Intra module refs:   Segment part 21
    -------------------------------------------------------------------------
DATA20_C
  Relative segment, address: E5E4 - E5EA (0x7 bytes), align: 0
  Segment part 5.             Intra module refs:   Segment part 21
    -------------------------------------------------------------------------
DATA20_C
  Relative segment, address: E5EB - E5F1 (0x7 bytes), align: 0
  Segment part 6.             Intra module refs:   Segment part 21
    -------------------------------------------------------------------------
DATA20_C
  Relative segment, address: E5F2 - E610 (0x1f bytes), align: 0
  Segment part 7.             Intra module refs:   GpsInfoProcess
    -------------------------------------------------------------------------
DATA20_C
  Relative segment, address: E611 - E65D (0x4d bytes), align: 0
  Segment part 8.             Intra module refs:   GpsInfoProcess
    -------------------------------------------------------------------------
DATA20_C
  Relative segment, address: E65E - E67E (0x21 bytes), align: 0
  Segment part 9.             Intra module refs:   GpsInfoProcess
    -------------------------------------------------------------------------
DATA20_C
  Relative segment, address: E67F - E68B (0xd bytes), align: 0
  Segment part 10.            Intra module refs:   GpsInfoProcess
    -------------------------------------------------------------------------
DATA20_C
  Relative segment, address: E68C - E695 (0xa bytes), align: 0
  Segment part 11.            Intra module refs:   GpsInfoProcess
    -------------------------------------------------------------------------
DATA20_C
  Relative segment, address: E696 - E6B5 (0x20 bytes), align: 0
  Segment part 12.            Intra module refs:   GpsInfoProcess
    -------------------------------------------------------------------------
DATA20_C
  Relative segment, address: E6B6 - E6BE (0x9 bytes), align: 0
  Segment part 13.            Intra module refs:   GpsCmdInit
    -------------------------------------------------------------------------
DATA20_C
  Relative segment, address: E6BF - E6C9 (0xb bytes), align: 0
  Segment part 14.            Intra module refs:   GpsCmdInit
    -------------------------------------------------------------------------
DATA20_C
  Relative segment, address: E6CA - E6D6 (0xd bytes), align: 0
  Segment part 22.            Intra module refs:   CalibratRtc
           ENTRY                   ADDRESS         REF BY
           =====                   =======         ======
           au8Leap                 E6CA 
    -------------------------------------------------------------------------
DATA20_C
  Relative segment, address: E6D7 - E6E3 (0xd bytes), align: 0
  Segment part 23.            Intra module refs:   CalibratRtc
           ENTRY                   ADDRESS         REF BY
           =====                   =======         ======
           au8Year                 E6D7 
    -------------------------------------------------------------------------
DATA20_Z
  Relative segment, address: 2063 - 2063 (0x1 bytes), align: 0
  Segment part 24.            Intra module refs:   GpsInfoProcess
           ENTRY                   ADDRESS         REF BY
           =====                   =======         ======
           u8Num                   2063 
    -------------------------------------------------------------------------
DATA20_Z
  Relative segment, address: 2064 - 2064 (0x1 bytes), align: 0
  Segment part 25.            Intra module refs:   GpsCmdRun
           ENTRY                   ADDRESS         REF BY
           =====                   =======         ======
           bRtcFlag                2064 
    -------------------------------------------------------------------------
<CODE> 1 (was CODE)
  Relative segment, address: B9A8 - BA03 (0x5c bytes), align: 1
  Segment part 31.            Intra module refs:   GpsCmdRun
           ENTRY                   ADDRESS         REF BY
           =====                   =======         ======
           NmeaPackType            B9A8 
               calls direct
               CSTACK = 00000000 ( 00000008 )
    -------------------------------------------------------------------------
<CODE> 1 (was CODE)
  Relative segment, address: BDE8 - BE2D (0x46 bytes), align: 1
  Segment part 30.            Intra module refs:   GpsCmdRun
           ENTRY                   ADDRESS         REF BY
           =====                   =======         ======
           CreatCmdIndex           BDE8 
               calls direct
               CSTACK = 00000000 ( 00000008 )
    -------------------------------------------------------------------------
<CODE> 1 (was CODE)
  Relative segment, address: C360 - C395 (0x36 bytes), align: 1
  Segment part 27.            Intra module refs:   CalibratRtc
                                                   GpsInfoProcess
           ENTRY                   ADDRESS         REF BY
           =====                   =======         ======
           RealCmdProcess          C360 
               CSTACK = 00000000 ( 00000004 )
    -------------------------------------------------------------------------
<CODE> 1 (was CODE)
  Relative segment, address: 6D28 - 6EDF (0x1b8 bytes), align: 1
  Segment part 29.            Intra module refs:   GpsCmdRun
           ENTRY                   ADDRESS         REF BY
           =====                   =======         ======
           GpsInfoProcess          6D28 
               calls direct
               CSTACK = 00000000 ( 00000008 )
    -------------------------------------------------------------------------
<CODE> 1 (was CODE)
  Relative segment, address: 65EC - 67C7 (0x1dc bytes), align: 1
  Segment part 26.            Intra module refs:   GpsCmdRun
           ENTRY                   ADDRESS         REF BY
           =====                   =======         ======
           CalibratLocation        65EC 
               calls direct
               CSTACK = 00000000 ( 0000002E )
    -------------------------------------------------------------------------
<CODE> 1 (was CODE)
  Relative segment, address: 803E - 8181 (0x144 bytes), align: 1
  Segment part 28.            Intra module refs:   GpsCmdRun
           ENTRY                   ADDRESS         REF BY
           =====                   =======         ======
           CalibratRtc             803E 
               calls direct
               CSTACK = 00000000 ( 0000001C )
    -------------------------------------------------------------------------
<CODE> 1 (was CODE)
  Relative segment, address: B32E - B3A7 (0x7a bytes), align: 1
  Segment part 32.            Intra module refs:   GpsCmdRun
           ENTRY                   ADDRESS         REF BY
           =====                   =======         ======
           GpsCmdAssemble          B32E 
               CSTACK = 00000000 ( 00000004 )
    -------------------------------------------------------------------------
<CODE> 1 (was CODE)
  Relative segment, address: B030 - B0B3 (0x84 bytes), align: 1
  Segment part 34.
           ENTRY                   ADDRESS         REF BY
           =====                   =======         ======
           GpsCmdInit              B030            main (main)
               calls direct
               CSTACK = 00000000 ( 00000004 )
    -------------------------------------------------------------------------
<CODE> 1 (was CODE)
  Relative segment, address: 7232 - 73CF (0x19e bytes), align: 1
  Segment part 33.
           ENTRY                   ADDRESS         REF BY
           =====                   =======         ======
           GpsCmdRun               7232            main (main)
               calls direct
               CSTACK = 00000000 ( 0000000C )
    -------------------------------------------------------------------------
DATA20_ID
  Relative segment, address: E730 - E73F (0x10 bytes), align: 1
  Segment part 21.            Intra module refs:   pGpsCmd

    *************************************************************************

  FILE NAME : F:\work\01.Location\Location\Project\Project_5438_New\Debug\Obj\I2c_Driver.r43
  PROGRAM MODULE, NAME : I2c_Driver

  SEGMENTS IN THE MODULE
  ======================
DATA16_AN
  Relative segment, address: 0260 - 0261 (0x2 bytes), align: 0
  Segment part 1. ROOT.       Intra module refs:   I2C_GetAck
                                                   I2C_READ_BYTE
           ENTRY                   ADDRESS         REF BY
           =====                   =======         ======
           _A_PDIN_L               0260 
           LOCAL                   ADDRESS         
           =====                   =======         
           PDIN                    0260 
           PDIN_H                  0261 
           PDIN_L                  0260 
    -------------------------------------------------------------------------
DATA16_AN
  Relative segment, address: 0262 - 0263 (0x2 bytes), align: 0
  Segment part 2. ROOT.       Intra module refs:   Engender_I2C_ack_signal
                                                   Engender_I2C_noack_signal
                                                   Engender_I2C_start_signal
                                                   Engender_I2C_stop_signal
                                                   I2CMasterReadOneByte
                                                   I2CMasterWriteOneByte
                                                   I2C_GetAck
                                                   I2C_Pins_DIR_Setting
                                                   I2C_READ_BYTE
                                                   I2C_WRITE_BYTE
                                                   LpEnterCfg (SystemCtl)
                                                   PORT1_ISR (SystemCtl)
                                                   ReservedPinCfg (SystemCtl)
                                                   RtcRead
                                                   RtcWrite
           ENTRY                   ADDRESS         REF BY
           =====                   =======         ======
           _A_PDOUT_L              0262 
           LOCAL                   ADDRESS         
           =====                   =======         
           PDOUT                   0262 
           PDOUT_H                 0263 
           PDOUT_L                 0262 
    -------------------------------------------------------------------------
DATA16_AN
  Relative segment, address: 0264 - 0265 (0x2 bytes), align: 0
  Segment part 3. ROOT.       Intra module refs:   I2C_Pins_DIR_Setting
                                                   LpEnterCfg (SystemCtl)
                                                   PORT1_ISR (SystemCtl)
                                                   ReservedPinCfg (SystemCtl)
           ENTRY                   ADDRESS         REF BY
           =====                   =======         ======
           _A_PDDIR_L              0264 
           LOCAL                   ADDRESS         
           =====                   =======         
           PDDIR                   0264 
           PDDIR_H                 0265 
           PDDIR_L                 0264 
    -------------------------------------------------------------------------
<CODE> 1 (was CODE)
  Relative segment, address: CD9C - CDAB (0x10 bytes), align: 1
  Segment part 6.             Intra module refs:   Engender_I2C_ack_signal
                                                   Engender_I2C_noack_signal
                                                   Engender_I2C_start_signal
                                                   Engender_I2C_stop_signal
                                                   I2C_GetAck
                                                   I2C_READ_BYTE
                                                   I2C_WRITE_BYTE
           ENTRY                   ADDRESS         REF BY
           =====                   =======         ======
           delay5us                CD9C 
               CSTACK = 00000000 ( 00000004 )
    -------------------------------------------------------------------------
<CODE> 1 (was CODE)
  Relative segment, address: CC06 - CC1D (0x18 bytes), align: 1
  Segment part 5.             Intra module refs:   I2CMasterReadOneByte
                                                   I2CMasterWriteOneByte
                                                   RtcRead
                                                   RtcWrite
           ENTRY                   ADDRESS         REF BY
           =====                   =======         ======
           Delay_MS                CC06 
               CSTACK = 00000000 ( 00000004 )
    -------------------------------------------------------------------------
<CODE> 1 (was CODE)
  Relative segment, address: C8F0 - C913 (0x24 bytes), align: 1
  Segment part 11.            Intra module refs:   I2CMasterReadOneByte
                                                   I2CMasterWriteOneByte
                                                   I2C_GetAck
                                                   RtcRead
                                                   RtcWrite
           ENTRY                   ADDRESS         REF BY
           =====                   =======         ======
           I2C_Pins_DIR_Setting    C8F0 
               CSTACK = 00000000 ( 00000004 )
    -------------------------------------------------------------------------
<CODE> 1 (was CODE)
  Relative segment, address: CA8E - CAAB (0x1e bytes), align: 1
  Segment part 14.            Intra module refs:   I2CMasterReadOneByte
                                                   I2CMasterWriteOneByte
                                                   RtcRead
                                                   RtcWrite
           ENTRY                   ADDRESS         REF BY
           =====                   =======         ======
           Engender_I2C_start_signal
                                   CA8E 
               calls direct
               CSTACK = 00000000 ( 00000004 )
    -------------------------------------------------------------------------
<CODE> 1 (was CODE)
  Relative segment, address: CA16 - CA33 (0x1e bytes), align: 1
  Segment part 10.            Intra module refs:   I2CMasterReadOneByte
                                                   I2CMasterWriteOneByte
                                                   RtcRead
                                                   RtcWrite
           ENTRY                   ADDRESS         REF BY
           =====                   =======         ======
           Engender_I2C_stop_signal
                                   CA16 
               calls direct
               CSTACK = 00000000 ( 00000004 )
    -------------------------------------------------------------------------
<CODE> 1 (was CODE)
  Relative segment, address: C832 - C859 (0x28 bytes), align: 1
  Segment part 8.             Intra module refs:   I2CMasterReadOneByte
                                                   I2CMasterWriteOneByte
                                                   RtcRead
           ENTRY                   ADDRESS         REF BY
           =====                   =======         ======
           Engender_I2C_ack_signal
                                   C832 
               calls direct
               CSTACK = 00000000 ( 00000004 )
    -------------------------------------------------------------------------
<CODE> 1 (was CODE)
  Relative segment, address: C80A - C831 (0x28 bytes), align: 1
  Segment part 7.             Intra module refs:   I2CMasterReadOneByte
                                                   RtcRead
           ENTRY                   ADDRESS         REF BY
           =====                   =======         ======
           Engender_I2C_noack_signal
                                   C80A 
               calls direct
               CSTACK = 00000000 ( 00000004 )
    -------------------------------------------------------------------------
<CODE> 1 (was CODE)
  Relative segment, address: C248 - C27F (0x38 bytes), align: 1
  Segment part 13.            Intra module refs:   I2CMasterReadOneByte
                                                   I2CMasterWriteOneByte
                                                   RtcRead
                                                   RtcWrite
           ENTRY                   ADDRESS         REF BY
           =====                   =======         ======
           I2C_WRITE_BYTE          C248 
               calls direct
               CSTACK = 00000000 ( 00000004 )
    -------------------------------------------------------------------------
<CODE> 1 (was CODE)
  Relative segment, address: BEFE - BF3F (0x42 bytes), align: 1
  Segment part 9.             Intra module refs:   I2CMasterReadOneByte
                                                   RtcRead
           ENTRY                   ADDRESS         REF BY
           =====                   =======         ======
           I2C_READ_BYTE           BEFE 
               calls direct
               CSTACK = 00000000 ( 00000004 )
    -------------------------------------------------------------------------
<CODE> 1 (was CODE)
  Relative segment, address: B946 - B9A7 (0x62 bytes), align: 1
  Segment part 19.            Intra module refs:   I2CMasterWrite
           ENTRY                   ADDRESS         REF BY
           =====                   =======         ======
           I2CMasterWriteOneByte   B946            RecordInit (Record)
                                                   SaveCommunicationMode (Record)
               calls direct
               CSTACK = 00000000 ( 00000014 )
    -------------------------------------------------------------------------
<CODE> 1 (was CODE)
  Relative segment, address: B138 - B1B7 (0x80 bytes), align: 1
  Segment part 17.            Intra module refs:   I2CMasterRead
           ENTRY                   ADDRESS         REF BY
           =====                   =======         ======
           I2CMasterReadOneByte    B138            ReadBckBdReceivingNbr (Record)
                                                   ReadBdReceivingNbr (Record)
                                                   ReadBdRxNbr (Record)
                                                   ReadBdSendNbr (Record)
                                                   ReadBdSendSucceedNbr (Record)
                                                   ReadCommunicationMode (Record)
                                                   ReadCompanyNbr (Record)
                                                   ReadSystemGapTime (Record)
                                                   ReadSystemNbr (Record)
                                                   ReadSystemType (Record)
                                                   RecordInit (Record)
               calls direct
               CSTACK = 00000000 ( 00000014 )
    -------------------------------------------------------------------------
<CODE> 1 (was CODE)
  Relative segment, address: C880 - C8A5 (0x26 bytes), align: 1
  Segment part 20.
           ENTRY                   ADDRESS         REF BY
           =====                   =======         ======
           I2CMasterWrite          C880            SaveBdBckReceivingNbr (Record)
                                                   SaveBdReceivingNbr (Record)
                                                   SaveBdRxNbr (Record)
                                                   SaveBdSendNbr (Record)
                                                   SaveBdSendSucceedNbr (Record)
                                                   SaveCdmaBckReceivingNbr (Record)
                                                   SaveCdmaReceivingNbr (Record)
                                                   SaveCompanyNbr (Record)
                                                   SaveSystemCdmaIndex (Record)
                                                   SaveSystemGapTime (Record)
                                                   SaveSystemNbr (Record)
                                                   SaveSystemRunTime (Record)
                                                   SaveSystemType (Record)
               calls direct
               CSTACK = 00000000 ( 00000014 )
    -------------------------------------------------------------------------
<CODE> 1 (was CODE)
  Relative segment, address: C7E2 - C809 (0x28 bytes), align: 1
  Segment part 18.
           ENTRY                   ADDRESS         REF BY
           =====                   =======         ======
           I2CMasterRead           C7E2            ReadBckCdmaReceivingNbr (Record)
                                                   ReadCdmaLocationNbr (Record)
                                                   ReadCdmaReceivingNbr (Record)
                                                   ReadSystemRunTime (Record)
               calls direct
               CSTACK = 00000000 ( 00000014 )
    -------------------------------------------------------------------------
<CODE> 1 (was CODE)
  Relative segment, address: C07E - C0B9 (0x3c bytes), align: 1
  Segment part 12.            Intra module refs:   RtcRead
                                                   RtcWrite
           ENTRY                   ADDRESS         REF BY
           =====                   =======         ======
           I2C_GetAck              C07E 
               calls direct
               CSTACK = 00000000 ( 00000004 )
    -------------------------------------------------------------------------
<CODE> 1 (was CODE)
  Relative segment, address: B422 - B49B (0x7a bytes), align: 1
  Segment part 16.
           ENTRY                   ADDRESS         REF BY
           =====                   =======         ======
           RtcWrite                B422            RtcConverHour (Rtc)
                                                   SetRtcInt1Out (Rtc)
                                                   SetTimeToRtc (Rtc)
               calls direct
               CSTACK = 00000000 ( 00000014 )
    -------------------------------------------------------------------------
<CODE> 1 (was CODE)
  Relative segment, address: AE08 - AE93 (0x8c bytes), align: 1
  Segment part 15.
           ENTRY                   ADDRESS         REF BY
           =====                   =======         ======
           RtcRead                 AE08            GetTimeFromRtc (Rtc)
                                                   RtcConverHour (Rtc)
               calls direct
               CSTACK = 00000000 ( 00000014 )

    *************************************************************************

  FILE NAME : F:\work\01.Location\Location\Project\Project_5438_New\Debug\Obj\OS_MEM.r43
  PROGRAM MODULE, NAME : OS_MEM

  SEGMENTS IN THE MODULE
  ======================
DATA20_Z
  Relative segment, address: 1D76 - 1D79 (0x4 bytes), align: 1
  Segment part 2.             Intra module refs:   OSMemCreate
                                                   OS_MemInit
           ENTRY                   ADDRESS         REF BY
           =====                   =======         ======
           OSMemFreeList           1D76 
    -------------------------------------------------------------------------
DATA20_Z
  Relative segment, address: 1D7A - 1DDD (0x64 bytes), align: 1
  Segment part 3.             Intra module refs:   OS_MemInit
           ENTRY                   ADDRESS         REF BY
           =====                   =======         ======
           OSMemTbl                1D7A 
    -------------------------------------------------------------------------
DATA20_N
  Relative segment, address: 207E - 307D (0x1000 bytes), align: 0
  Segment part 4.             Intra module refs:   OS_MemInit
           ENTRY                   ADDRESS         REF BY
           =====                   =======         ======
           au8LargeMem             207E 
    -------------------------------------------------------------------------
DATA20_N
  Relative segment, address: 307E - 3C7D (0xc00 bytes), align: 0
  Segment part 5.             Intra module refs:   OS_MemInit
           ENTRY                   ADDRESS         REF BY
           =====                   =======         ======
           au8MediumMem            307E 
    -------------------------------------------------------------------------
DATA20_N
  Relative segment, address: 3C7E - 487D (0xc00 bytes), align: 0
  Segment part 6.             Intra module refs:   OS_MemInit
           ENTRY                   ADDRESS         REF BY
           =====                   =======         ======
           au8SmallMem             3C7E 
    -------------------------------------------------------------------------
DATA20_Z
  Relative segment, address: 2065 - 2065 (0x1 bytes), align: 0
  Segment part 7.             Intra module refs:   OS_MemInit
           ENTRY                   ADDRESS         REF BY
           =====                   =======         ======
           err                     2065            AssembleCdmaMsg (CdmaModule)
                                                   BdModuleInit (BeiDouModule)
                                                   BdSendCmdICJC (BeiDouModule)
                                                   BdSendCmdTXSQ (BeiDouModule)
                                                   CdmaCmdInit (CdmaModule)
                                                   DebugCmdInit (DebugCmd)
                                                   GetBufBdInfo (BeiDouModule)
                                                   GetCdmaCSQ (CdmaModule)
                                                   GetCdmaTime (CdmaModule)
                                                   GpsCmdInit (GpsParse)
                                                   RegisteUnReadMsg (CdmaModule)
                                                   SendInfoToCenter (Communication)
                                                   Uart0Init (Uart0)
                                                   Uart1Init (Uart1)
                                                   Uart2Init (Uart2)
                                                   Uart3Init (Uart3)
    -------------------------------------------------------------------------
DATA20_Z
  Relative segment, address: 1DDE - 1DE1 (0x4 bytes), align: 1
  Segment part 9.             Intra module refs:   OS_MemInit
           ENTRY                   ADDRESS         REF BY
           =====                   =======         ======
           pLargeMem               1DDE            Uart0Init (Uart0)
                                                   Uart1Init (Uart1)
    -------------------------------------------------------------------------
DATA20_Z
  Relative segment, address: 1DE2 - 1DE5 (0x4 bytes), align: 1
  Segment part 10.            Intra module refs:   OS_MemInit
           ENTRY                   ADDRESS         REF BY
           =====                   =======         ======
           pMediumMem              1DE2            BdModuleInit (BeiDouModule)
                                                   CdmaCmdInit (CdmaModule)
                                                   Uart3Init (Uart3)
    -------------------------------------------------------------------------
DATA20_Z
  Relative segment, address: 1DE6 - 1DE9 (0x4 bytes), align: 1
  Segment part 11.            Intra module refs:   OS_MemInit
           ENTRY                   ADDRESS         REF BY
           =====                   =======         ======
           pSmallMem               1DE6            AssembleCdmaMsg (CdmaModule)
                                                   BdSendCmdICJC (BeiDouModule)
                                                   BdSendCmdTXSQ (BeiDouModule)
                                                   DebugCmdInit (DebugCmd)
                                                   GetBufBdInfo (BeiDouModule)
                                                   GetCdmaCSQ (CdmaModule)
                                                   GetCdmaTime (CdmaModule)
                                                   GpsCmdInit (GpsParse)
                                                   RegisteUnReadMsg (CdmaModule)
                                                   SendInfoToCenter (Communication)
                                                   Uart2Init (Uart2)
    -------------------------------------------------------------------------
<CODE> 1 (was CODE)
  Relative segment, address: 9B90 - 9C6D (0xde bytes), align: 1
  Segment part 12.            Intra module refs:   OS_MemInit
           ENTRY                   ADDRESS         REF BY
           =====                   =======         ======
           OSMemCreate             9B90 
               CSTACK = 00000000 ( 00000028 )
    -------------------------------------------------------------------------
<CODE> 1 (was CODE)
  Relative segment, address: BE74 - BEB9 (0x46 bytes), align: 1
  Segment part 16.
           ENTRY                   ADDRESS         REF BY
           =====                   =======         ======
           OSMemGet                BE74            AssembleCdmaMsg (CdmaModule)
                                                   BdModuleInit (BeiDouModule)
                                                   BdSendCmdICJC (BeiDouModule)
                                                   BdSendCmdTXSQ (BeiDouModule)
                                                   CdmaCmdInit (CdmaModule)
                                                   DebugCmdInit (DebugCmd)
                                                   GetBufBdInfo (BeiDouModule)
                                                   GetCdmaCSQ (CdmaModule)
                                                   GetCdmaTime (CdmaModule)
                                                   GpsCmdInit (GpsParse)
                                                   RegisteUnReadMsg (CdmaModule)
                                                   SendInfoToCenter (Communication)
                                                   Uart0Init (Uart0)
                                                   Uart1Init (Uart1)
                                                   Uart2Init (Uart2)
                                                   Uart3Init (Uart3)
               CSTACK = 00000000 ( 00000004 )
    -------------------------------------------------------------------------
<CODE> 1 (was CODE)
  Relative segment, address: BD52 - BD9D (0x4c bytes), align: 1
  Segment part 15.
           ENTRY                   ADDRESS         REF BY
           =====                   =======         ======
           OSMemPut                BD52            AssembleCdmaMsg (CdmaModule)
                                                   BdSendCmdICJC (BeiDouModule)
                                                   BdSendCmdTXSQ (BeiDouModule)
                                                   GetBufBdInfo (BeiDouModule)
                                                   GetCdmaCSQ (CdmaModule)
                                                   GetCdmaTime (CdmaModule)
                                                   RegisteUnReadMsg (CdmaModule)
                                                   SendInfoToCenter (Communication)
               CSTACK = 00000000 ( 00000004 )
    -------------------------------------------------------------------------
<CODE> 1 (was CODE)
  Relative segment, address: 9708 - 97FD (0xf6 bytes), align: 1
  Segment part 13.
           ENTRY                   ADDRESS         REF BY
           =====                   =======         ======
           OS_MemInit              9708            SystemInit (SystemCtl)
               calls direct
               CSTACK = 00000000 ( 00000010 )

    *************************************************************************

  FILE NAME : F:\work\01.Location\Location\Project\Project_5438_New\Debug\Obj\Record.r43
  PROGRAM MODULE, NAME : Record

  SEGMENTS IN THE MODULE
  ======================
DATA20_Z
  Relative segment, address: 1DEA - 1E0F (0x26 bytes), align: 1
  Segment part 2.             Intra module refs:   RecordInit
                                                   RecordRun
           ENTRY                   ADDRESS         REF BY
           =====                   =======         ======
           sRecordCb               1DEA            AutoSystemGapTime (SystemCtl)
                                                   CmdBeiDouBckRecNumSet (DebugCmd)
                                                   CmdBeiDouRecNumSet (DebugCmd)
                                                   CmdSetCdmaReceivingNbr (DebugCmd)
                                                   CommunicationInit (Communication)
                                                   EnterLowPower (SystemCtl)
                                                   GetBeiDouBckSendNum (BeiDouModule)
                                                   GetBeiDouSendNum (BeiDouModule)
                                                   GetSendInfoGapTime (DebugCmd)
                                                   GetSystemType (DebugCmd)
                                                   PORT1_ISR (SystemCtl)
                                                   SendInfoToCenter (Communication)
                                                   SetSendInfoGapTime (DebugCmd)
                                                   SetSystemType (DebugCmd)
                                                   SystemRunTimeClear (DebugCmd)
    -------------------------------------------------------------------------
<CODE> 1 (was CODE)
  Relative segment, address: C2B8 - C2EF (0x38 bytes), align: 1
  Segment part 27.            Intra module refs:   RecordInit
           ENTRY                   ADDRESS         REF BY
           =====                   =======         ======
           ReadCompanyNbr          C2B8 
               calls direct
               CSTACK = 00000000 ( 0000000C )
    -------------------------------------------------------------------------
<CODE> 1 (was CODE)
  Relative segment, address: C280 - C2B7 (0x38 bytes), align: 1
  Segment part 26.            Intra module refs:   RecordInit
           ENTRY                   ADDRESS         REF BY
           =====                   =======         ======
           ReadSystemNbr           C280 
               calls direct
               CSTACK = 00000000 ( 0000000C )
    -------------------------------------------------------------------------
<CODE> 1 (was CODE)
  Relative segment, address: C85A - C87F (0x26 bytes), align: 1
  Segment part 24.            Intra module refs:   RecordInit
           ENTRY                   ADDRESS         REF BY
           =====                   =======         ======
           ReadSystemType          C85A 
               calls direct
               CSTACK = 00000000 ( 00000008 )
    -------------------------------------------------------------------------
<CODE> 1 (was CODE)
  Relative segment, address: C65C - C689 (0x2e bytes), align: 1
  Segment part 23.            Intra module refs:   RecordInit
           ENTRY                   ADDRESS         REF BY
           =====                   =======         ======
           ReadSystemGapTime       C65C 
               calls direct
               CSTACK = 00000000 ( 00000008 )
    -------------------------------------------------------------------------
<CODE> 1 (was CODE)
  Relative segment, address: C1D8 - C20F (0x38 bytes), align: 1
  Segment part 22.            Intra module refs:   RecordInit
           ENTRY                   ADDRESS         REF BY
           =====                   =======         ======
           ReadBdReceivingNbr      C1D8 
               calls direct
               CSTACK = 00000000 ( 00000008 )
    -------------------------------------------------------------------------
<CODE> 1 (was CODE)
  Relative segment, address: 7092 - 7231 (0x1a0 bytes), align: 1
  Segment part 38.
           ENTRY                   ADDRESS         REF BY
           =====                   =======         ======
           ReadSystemBdIndex       7092            BdModuleInit (BeiDouModule)
               CSTACK = 00000000 ( 00000014 )
    -------------------------------------------------------------------------
<CODE> 1 (was CODE)
  Relative segment, address: C1A0 - C1D7 (0x38 bytes), align: 1
  Segment part 21.            Intra module refs:   RecordInit
           ENTRY                   ADDRESS         REF BY
           =====                   =======         ======
           ReadBckBdReceivingNbr   C1A0 
               calls direct
               CSTACK = 00000000 ( 00000008 )
    -------------------------------------------------------------------------
<CODE> 1 (was CODE)
  Relative segment, address: CCDE - CCEF (0x12 bytes), align: 1
  Segment part 25.            Intra module refs:   RecordInit
           ENTRY                   ADDRESS         REF BY
           =====                   =======         ======
           ReadCommunicationMode   CCDE 
               calls direct
               CSTACK = 00000000 ( 00000004 )
    -------------------------------------------------------------------------
<CODE> 1 (was CODE)
  Relative segment, address: CCCC - CCDD (0x12 bytes), align: 1
  Segment part 10.            Intra module refs:   RecordRun
           ENTRY                   ADDRESS         REF BY
           =====                   =======         ======
           SaveCommunicationMode   CCCC 
               calls direct
               CSTACK = 00000000 ( 00000004 )
    -------------------------------------------------------------------------
<CODE> 1 (was CODE)
  Relative segment, address: CD4A - CD5B (0x12 bytes), align: 1
  Segment part 20.            Intra module refs:   RecordInit
           ENTRY                   ADDRESS         REF BY
           =====                   =======         ======
           ReadCdmaReceivingNbr    CD4A            CdmaMsgParse (CdmaModule)
                                                   CmdGetCdmaReceivingNbr (DebugCmd)
               calls direct
               CSTACK = 00000000 ( 00000004 )
    -------------------------------------------------------------------------
<CODE> 1 (was CODE)
  Relative segment, address: CCA8 - CCB9 (0x12 bytes), align: 1
  Segment part 19.            Intra module refs:   RecordInit
           ENTRY                   ADDRESS         REF BY
           =====                   =======         ======
           ReadCdmaLocationNbr     CCA8 
               calls direct
               CSTACK = 00000000 ( 00000004 )
    -------------------------------------------------------------------------
<CODE> 1 (was CODE)
  Relative segment, address: CCBA - CCCB (0x12 bytes), align: 1
  Segment part 18.            Intra module refs:   RecordInit
           ENTRY                   ADDRESS         REF BY
           =====                   =======         ======
           ReadBckCdmaReceivingNbr
                                   CCBA 
               calls direct
               CSTACK = 00000000 ( 00000004 )
    -------------------------------------------------------------------------
<CODE> 1 (was CODE)
  Relative segment, address: B49C - B50F (0x74 bytes), align: 1
  Segment part 36.
           ENTRY                   ADDRESS         REF BY
           =====                   =======         ======
           ReadSystemRunTime       B49C            SystemRunTimeGet (DebugCmd)
               calls direct
               CSTACK = 00000000 ( 0000000C )
    -------------------------------------------------------------------------
<CODE> 1 (was CODE)
  Relative segment, address: CD5C - CD6B (0x10 bytes), align: 1
  Segment part 12.            Intra module refs:   RecordRun
           ENTRY                   ADDRESS         REF BY
           =====                   =======         ======
           SaveCompanyNbr          CD5C 
               calls direct
               CSTACK = 00000000 ( 00000004 )
    -------------------------------------------------------------------------
<CODE> 1 (was CODE)
  Relative segment, address: CDBC - CDCB (0x10 bytes), align: 1
  Segment part 11.            Intra module refs:   RecordRun
           ENTRY                   ADDRESS         REF BY
           =====                   =======         ======
           SaveSystemNbr           CDBC 
               calls direct
               CSTACK = 00000000 ( 00000004 )
    -------------------------------------------------------------------------
<CODE> 1 (was CODE)
  Relative segment, address: CDEC - CDFB (0x10 bytes), align: 1
  Segment part 9.             Intra module refs:   RecordRun
           ENTRY                   ADDRESS         REF BY
           =====                   =======         ======
           SaveSystemType          CDEC 
               calls direct
               CSTACK = 00000000 ( 00000004 )
    -------------------------------------------------------------------------
<CODE> 1 (was CODE)
  Relative segment, address: CDFC - CE0B (0x10 bytes), align: 1
  Segment part 8.             Intra module refs:   RecordRun
           ENTRY                   ADDRESS         REF BY
           =====                   =======         ======
           SaveSystemGapTime       CDFC 
               calls direct
               CSTACK = 00000000 ( 00000004 )
    -------------------------------------------------------------------------
<CODE> 1 (was CODE)
  Relative segment, address: CCF0 - CD01 (0x12 bytes), align: 1
  Segment part 7.             Intra module refs:   RecordRun
           ENTRY                   ADDRESS         REF BY
           =====                   =======         ======
           SaveBdReceivingNbr      CCF0 
               calls direct
               CSTACK = 00000000 ( 00000004 )
    -------------------------------------------------------------------------
<CODE> 1 (was CODE)
  Relative segment, address: CD02 - CD13 (0x12 bytes), align: 1
  Segment part 6.             Intra module refs:   RecordRun
           ENTRY                   ADDRESS         REF BY
           =====                   =======         ======
           SaveBdBckReceivingNbr   CD02 
               calls direct
               CSTACK = 00000000 ( 00000004 )
    -------------------------------------------------------------------------
<CODE> 1 (was CODE)
  Relative segment, address: CD14 - CD25 (0x12 bytes), align: 1
  Segment part 5.             Intra module refs:   RecordRun
           ENTRY                   ADDRESS         REF BY
           =====                   =======         ======
           SaveCdmaReceivingNbr    CD14 
               calls direct
               CSTACK = 00000000 ( 00000004 )
    -------------------------------------------------------------------------
<CODE> 1 (was CODE)
  Relative segment, address: CD26 - CD37 (0x12 bytes), align: 1
  Segment part 3.             Intra module refs:   RecordRun
           ENTRY                   ADDRESS         REF BY
           =====                   =======         ======
           SaveSystemCdmaIndex     CD26 
               calls direct
               CSTACK = 00000000 ( 00000004 )
    -------------------------------------------------------------------------
<CODE> 1 (was CODE)
  Relative segment, address: CD38 - CD49 (0x12 bytes), align: 1
  Segment part 4.             Intra module refs:   RecordRun
           ENTRY                   ADDRESS         REF BY
           =====                   =======         ======
           SaveCdmaBckReceivingNbr
                                   CD38 
               calls direct
               CSTACK = 00000000 ( 00000004 )
    -------------------------------------------------------------------------
<CODE> 1 (was CODE)
  Relative segment, address: C0F6 - C12F (0x3a bytes), align: 1
  Segment part 17.            Intra module refs:   RecordInit
           ENTRY                   ADDRESS         REF BY
           =====                   =======         ======
           SaveSystemRunTime       C0F6            EnterLowPower (SystemCtl)
                                                   SystemRunTimeClear (DebugCmd)
               calls direct
               CSTACK = 00000000 ( 00000008 )
    -------------------------------------------------------------------------
<CODE> 1 (was CODE)
  Relative segment, address: C598 - C5C9 (0x32 bytes), align: 1
  Segment part 16.            Intra module refs:   RecordInit
           ENTRY                   ADDRESS         REF BY
           =====                   =======         ======
           ReadBdRxNbr             C598            CmdBeiDouGetSendSuccess (DebugCmd)
               calls direct
               CSTACK = 00000000 ( 00000008 )
    -------------------------------------------------------------------------
<CODE> 1 (was CODE)
  Relative segment, address: C566 - C597 (0x32 bytes), align: 1
  Segment part 15.            Intra module refs:   RecordInit
           ENTRY                   ADDRESS         REF BY
           =====                   =======         ======
           ReadBdSendNbr           C566            CmdBeiDouGetSendSuccess (DebugCmd)
               calls direct
               CSTACK = 00000000 ( 00000008 )
    -------------------------------------------------------------------------
<CODE> 1 (was CODE)
  Relative segment, address: C534 - C565 (0x32 bytes), align: 1
  Segment part 14.            Intra module refs:   RecordInit
           ENTRY                   ADDRESS         REF BY
           =====                   =======         ======
           ReadBdSendSucceedNbr    C534            CmdBeiDouGetSendSuccess (DebugCmd)
               calls direct
               CSTACK = 00000000 ( 00000008 )
    -------------------------------------------------------------------------
<CODE> 1 (was CODE)
  Relative segment, address: CE0C - CE1B (0x10 bytes), align: 1
  Segment part 31.
           ENTRY                   ADDRESS         REF BY
           =====                   =======         ======
           SaveBdRxNbr             CE0C            CmdBeiDouClrSendSuccess (DebugCmd)
                                                   EnterLowPower (SystemCtl)
               calls direct
               CSTACK = 00000000 ( 00000004 )
    -------------------------------------------------------------------------
<CODE> 1 (was CODE)
  Relative segment, address: CE2C - CE3B (0x10 bytes), align: 1
  Segment part 30.
           ENTRY                   ADDRESS         REF BY
           =====                   =======         ======
           SaveBdSendNbr           CE2C            CmdBeiDouClrSendSuccess (DebugCmd)
                                                   EnterLowPower (SystemCtl)
               calls direct
               CSTACK = 00000000 ( 00000004 )
    -------------------------------------------------------------------------
<CODE> 1 (was CODE)
  Relative segment, address: CE1C - CE2B (0x10 bytes), align: 1
  Segment part 29.
           ENTRY                   ADDRESS         REF BY
           =====                   =======         ======
           SaveBdSendSucceedNbr    CE1C            CmdBeiDouClrSendSuccess (DebugCmd)
                                                   EnterLowPower (SystemCtl)
               calls direct
               CSTACK = 00000000 ( 00000004 )
    -------------------------------------------------------------------------
<CODE> 1 (was CODE)
  Relative segment, address: 82C4 - 8403 (0x140 bytes), align: 1
  Segment part 28.
           ENTRY                   ADDRESS         REF BY
           =====                   =======         ======
           RecordInit              82C4            main (main)
               calls direct
               CSTACK = 00000000 ( 00000004 )
    -------------------------------------------------------------------------
<CODE> 1 (was CODE)
  Relative segment, address: AD78 - AE07 (0x90 bytes), align: 1
  Segment part 13.
           ENTRY                   ADDRESS         REF BY
           =====                   =======         ======
           RecordRun               AD78            main (main)
               calls direct
               CSTACK = 00000000 ( 00000004 )

    *************************************************************************

  FILE NAME : F:\work\01.Location\Location\Project\Project_5438_New\Debug\Obj\Rtc.r43
  PROGRAM MODULE, NAME : Rtc

  SEGMENTS IN THE MODULE
  ======================
DATA16_AN
  Relative segment, address: 0218 - 0219 (0x2 bytes), align: 0
  Segment part 2. ROOT.       Intra module refs:   RtcInit
           ENTRY                   ADDRESS         REF BY
           =====                   =======         ======
           _A_PAIES_L              0218 
           LOCAL                   ADDRESS         
           =====                   =======         
           PAIES                   0218 
           PAIES_H                 0219 
           PAIES_L                 0218 
    -------------------------------------------------------------------------
DATA20_Z
  Relative segment, address: 2066 - 206C (0x7 bytes), align: 0
  Segment part 4.             Intra module refs:   RtcInit
           ENTRY                   ADDRESS         REF BY
           =====                   =======         ======
           sCurTime                2066            SendInfoToCenter (Communication)
    -------------------------------------------------------------------------
<CODE> 1 (was CODE)
  Relative segment, address: CA34 - CA51 (0x1e bytes), align: 1
  Segment part 5.             Intra module refs:   RtcConverHour
                                                   SetRtcInt1Out
                                                   SetTimeToRtc
           LOCAL                   ADDRESS         
           =====                   =======         
           Delay                   CA34 
               CSTACK = 00000000 ( 00000004 )
    -------------------------------------------------------------------------
<CODE> 1 (was CODE)
  Relative segment, address: C3CA - C3FD (0x34 bytes), align: 1
  Segment part 7.             Intra module refs:   GetTimeFromRtc
                                                   SetTimeToRtc
           ENTRY                   ADDRESS         REF BY
           =====                   =======         ======
           ByteExchange            C3CA 
               CSTACK = 00000000 ( 00000004 )
    -------------------------------------------------------------------------
<CODE> 1 (was CODE)
  Relative segment, address: BF82 - BFC1 (0x40 bytes), align: 1
  Segment part 14.
           ENTRY                   ADDRESS         REF BY
           =====                   =======         ======
           RtcConverHour           BF82            CalibratRtc (GpsParse)
                                                   SetCdmaTimeToRtc (CdmaModule)
               calls direct
               CSTACK = 00000000 ( 00000006 )
    -------------------------------------------------------------------------
<CODE> 1 (was CODE)
  Relative segment, address: C3FE - C431 (0x34 bytes), align: 1
  Segment part 12.            Intra module refs:   RtcInit
           ENTRY                   ADDRESS         REF BY
           =====                   =======         ======
           SetRtcInt1Out           C3FE            CalibratRtc (GpsParse)
                                                   EnterLowPower (SystemCtl)
                                                   PORT1_ISR (SystemCtl)
                                                   SetCdmaTimeToRtc (CdmaModule)
               calls direct
               CSTACK = 00000000 ( 00000006 )
    -------------------------------------------------------------------------
<CODE> 1 (was CODE)
  Relative segment, address: CC66 - CC7D (0x18 bytes), align: 1
  Segment part 13.
           ENTRY                   ADDRESS         REF BY
           =====                   =======         ======
           RtcInit                 CC66            main (main)
               calls direct
               CSTACK = 00000000 ( 00000004 )
    -------------------------------------------------------------------------
<CODE> 1 (was CODE)
  Relative segment, address: BCB4 - BD03 (0x50 bytes), align: 1
  Segment part 6.             Intra module refs:   GetTimeFromRtc
                                                   SetTimeToRtc
           ENTRY                   ADDRESS         REF BY
           =====                   =======         ======
           CaculateWeek            BCB4 
               CSTACK = 00000000 ( 00000014 )
    -------------------------------------------------------------------------
<CODE> 1 (was CODE)
  Relative segment, address: 7850 - 79B7 (0x168 bytes), align: 1
  Segment part 11.            Intra module refs:   RtcInit
           ENTRY                   ADDRESS         REF BY
           =====                   =======         ======
           GetTimeFromRtc          7850            GetRtcTime (DebugCmd)
                                                   PORT1_ISR (SystemCtl)
                                                   SendInfoToCenter (Communication)
               calls direct
               CSTACK = 00000000 ( 00000014 )
    -------------------------------------------------------------------------
<CODE> 1 (was CODE)
  Relative segment, address: 6996 - 6B5F (0x1ca bytes), align: 1
  Segment part 8.
           ENTRY                   ADDRESS         REF BY
           =====                   =======         ======
           SetTimeToRtc            6996            CalibratRtc (GpsParse)
                                                   SetCdmaTimeToRtc (CdmaModule)
               calls direct
               CSTACK = 00000000 ( 00000014 )

    *************************************************************************

  FILE NAME : F:\work\01.Location\Location\Project\Project_5438_New\Debug\Obj\SoftTimer.r43
  PROGRAM MODULE, NAME : SoftTimer

  SEGMENTS IN THE MODULE
  ======================
DATA20_Z
  Relative segment, address: 1E10 - 1EAF (0xa0 bytes), align: 1
  Segment part 3.             Intra module refs:   SwdDisable
                                                   SwdEnable
                                                   SwdFree
                                                   SwdGet
                                                   SwdGetLifeTime
                                                   SwdInit
                                                   SwdIsEnable
                                                   SwdReset
                                                   SwdRun
                                                   SwdSetLifeTime
                                                   SwdSetName
           ENTRY                   ADDRESS         REF BY
           =====                   =======         ======
           sDogs                   1E10 
    -------------------------------------------------------------------------
<CODE> 1 (was CODE)
  Relative segment, address: B2B4 - B32D (0x7a bytes), align: 1
  Segment part 14.
           ENTRY                   ADDRESS         REF BY
           =====                   =======         ======
           SwdInit                 B2B4            TimerA_Init (Timer)
               calls direct
               CSTACK = 00000000 ( 00000004 )
    -------------------------------------------------------------------------
<CODE> 1 (was CODE)
  Relative segment, address: C0BA - C0F5 (0x3c bytes), align: 1
  Segment part 13.
           ENTRY                   ADDRESS         REF BY
           =====                   =======         ======
           SwdGet                  C0BA            Adc_Init (BatteryDetect)
                                                   BdModuleInit (BeiDouModule)
                                                   BdSendCmdICJC (BeiDouModule)
                                                   CdmaCmdInit (CdmaModule)
                                                   CdmaDeletMsg (DebugCmd)
                                                   CmdBeiDouBckRecNumSet (DebugCmd)
                                                   CmdBeiDouRecNumSet (DebugCmd)
                                                   CmdCdmaInfoTest (DebugCmd)
                                                   CmdSetCdmaLocationNbr (DebugCmd)
                                                   CmdSetCdmaReceivingNbr (DebugCmd)
                                                   CommunicationInit (Communication)
                                                   DebugCmdInit (DebugCmd)
                                                   GetCdmaCSQ (CdmaModule)
                                                   GetCdmaTime (CdmaModule)
                                                   GetLocationNbr (CdmaModule)
                                                   GpsCmdInit (GpsParse)
                                                   SetLocationNbr (CdmaModule)
                                                   SetSendInfoGapTime (DebugCmd)
                                                   SetSystemType (DebugCmd)
                                                   SystemIdleInit (SystemCtl)
               CSTACK = 00000000 ( 00000004 )
    -------------------------------------------------------------------------
<CODE> 1 (was CODE)
  Relative segment, address: C97A - C99B (0x22 bytes), align: 1
  Segment part 12.
           ENTRY                   ADDRESS         REF BY
           =====                   =======         ======
           SwdSetName              C97A            Adc_Init (BatteryDetect)
                                                   BdModuleInit (BeiDouModule)
                                                   CdmaCmdInit (CdmaModule)
                                                   CommunicationInit (Communication)
                                                   DebugCmdInit (DebugCmd)
                                                   GpsCmdInit (GpsParse)
                                                   SystemIdleInit (SystemCtl)
               CSTACK = 00000000 ( 00000004 )
    -------------------------------------------------------------------------
<CODE> 1 (was CODE)
  Relative segment, address: BA04 - BA5D (0x5a bytes), align: 1
  Segment part 11.
           ENTRY                   ADDRESS         REF BY
           =====                   =======         ======
           SwdSetLifeTime          BA04            Adc_Init (BatteryDetect)
                                                   BdModuleInit (BeiDouModule)
                                                   BdSendCmdICJC (BeiDouModule)
                                                   CdmaCmdInit (CdmaModule)
                                                   CdmaDeletMsg (DebugCmd)
                                                   CmdBeiDouBckRecNumSet (DebugCmd)
                                                   CmdBeiDouRecNumSet (DebugCmd)
                                                   CmdCdmaInfoTest (DebugCmd)
                                                   CmdSetCdmaLocationNbr (DebugCmd)
                                                   CmdSetCdmaReceivingNbr (DebugCmd)
                                                   CommunicationInit (Communication)
                                                   DebugCmdInit (DebugCmd)
                                                   GetCdmaCSQ (CdmaModule)
                                                   GetCdmaTime (CdmaModule)
                                                   GetLocationNbr (CdmaModule)
                                                   GpsCmdInit (GpsParse)
                                                   SetLocationNbr (CdmaModule)
                                                   SetSendInfoGapTime (DebugCmd)
                                                   SetSystemType (DebugCmd)
                                                   SystemIdleInit (SystemCtl)
               calls direct
               CSTACK = 00000000 ( 0000000C )
    -------------------------------------------------------------------------
<CODE> 1 (was CODE)
  Relative segment, address: C5CA - C5FB (0x32 bytes), align: 1
  Segment part 10.
           ENTRY                   ADDRESS         REF BY
           =====                   =======         ======
           SwdGetLifeTime          C5CA            BatteryDetect (BatteryDetect)
                                                   BdCmdRun (BeiDouModule)
                                                   BdSendCmdICJC (BeiDouModule)
                                                   CdmaCmdRun (CdmaModule)
                                                   CdmaDeletMsg (DebugCmd)
                                                   CmdBeiDouBckRecNumSet (DebugCmd)
                                                   CmdBeiDouRecNumSet (DebugCmd)
                                                   CmdCdmaInfoTest (DebugCmd)
                                                   CmdSetCdmaLocationNbr (DebugCmd)
                                                   CmdSetCdmaReceivingNbr (DebugCmd)
                                                   DebugCmdRun (DebugCmd)
                                                   GetCdmaCSQ (CdmaModule)
                                                   GetCdmaTime (CdmaModule)
                                                   GetLocationNbr (CdmaModule)
                                                   GpsCmdRun (GpsParse)
                                                   SendInfoToCenter (Communication)
                                                   SetLocationNbr (CdmaModule)
                                                   SetSendInfoGapTime (DebugCmd)
                                                   SetSystemType (DebugCmd)
                                                   SystemIdleRun (SystemCtl)
               calls direct
               CSTACK = 00000000 ( 0000000C )
    -------------------------------------------------------------------------
<CODE> 1 (was CODE)
  Relative segment, address: C5FC - C62B (0x30 bytes), align: 1
  Segment part 9.
           ENTRY                   ADDRESS         REF BY
           =====                   =======         ======
           SwdEnable               C5FC            Adc_Init (BatteryDetect)
                                                   BdCmdRun (BeiDouModule)
                                                   BdSendCmdICJC (BeiDouModule)
                                                   CdmaCmdHandler (CdmaModule)
                                                   CdmaCmdInit (CdmaModule)
                                                   CdmaCmdRun (CdmaModule)
                                                   CdmaDeletMsg (DebugCmd)
                                                   CdmaRestInit (CdmaModule)
                                                   CmdBeiDouBckRecNumSet (DebugCmd)
                                                   CmdBeiDouRecNumSet (DebugCmd)
                                                   CmdCdmaInfoTest (DebugCmd)
                                                   CmdSetCdmaLocationNbr (DebugCmd)
                                                   CmdSetCdmaReceivingNbr (DebugCmd)
                                                   CommunicationInit (Communication)
                                                   DebugCmdRun (DebugCmd)
                                                   EnterLowPower (SystemCtl)
                                                   GetCdmaCSQ (CdmaModule)
                                                   GetCdmaTime (CdmaModule)
                                                   GetLocationNbr (CdmaModule)
                                                   GpsCmdRun (GpsParse)
                                                   SendInfoToCenter (Communication)
                                                   SetLocationNbr (CdmaModule)
                                                   SetSendInfoGapTime (DebugCmd)
                                                   SetSystemType (DebugCmd)
                                                   SystemIdleInit (SystemCtl)
               calls direct
               CSTACK = 00000000 ( 00000008 )
    -------------------------------------------------------------------------
<CODE> 1 (was CODE)
  Relative segment, address: C502 - C533 (0x32 bytes), align: 1
  Segment part 8.
           ENTRY                   ADDRESS         REF BY
           =====                   =======         ======
           SwdIsEnable             C502            BdCmdRun (BeiDouModule)
                                                   CdmaCmdRun (CdmaModule)
                                                   DebugCmdRun (DebugCmd)
                                                   GpsCmdRun (GpsParse)
               calls direct
               CSTACK = 00000000 ( 0000000C )
    -------------------------------------------------------------------------
<CODE> 1 (was CODE)
  Relative segment, address: C62C - C65B (0x30 bytes), align: 1
  Segment part 7.
           ENTRY                   ADDRESS         REF BY
           =====                   =======         ======
           SwdDisable              C62C            BdCmdRun (BeiDouModule)
                                                   BdSendCmdICJC (BeiDouModule)
                                                   CdmaCmdHandler (CdmaModule)
                                                   CdmaCmdRun (CdmaModule)
                                                   CdmaDeletMsg (DebugCmd)
                                                   CmdBeiDouBckRecNumSet (DebugCmd)
                                                   CmdBeiDouRecNumSet (DebugCmd)
                                                   CmdCdmaInfoTest (DebugCmd)
                                                   CmdSetCdmaLocationNbr (DebugCmd)
                                                   CmdSetCdmaReceivingNbr (DebugCmd)
                                                   DebugCmdRun (DebugCmd)
                                                   GpsCmdRun (GpsParse)
                                                   SendInfoToCenter (Communication)
                                                   SetSendInfoGapTime (DebugCmd)
                                                   SetSystemType (DebugCmd)
               calls direct
               CSTACK = 00000000 ( 00000008 )
    -------------------------------------------------------------------------
<CODE> 1 (was CODE)
  Relative segment, address: BFC2 - C001 (0x40 bytes), align: 1
  Segment part 6.
           ENTRY                   ADDRESS         REF BY
           =====                   =======         ======
           SwdReset                BFC2            BatteryDetect (BatteryDetect)
                                                   BdCmdRun (BeiDouModule)
                                                   BdSendCmdICJC (BeiDouModule)
                                                   CdmaCmdRun (CdmaModule)
                                                   CdmaRestInit (CdmaModule)
                                                   DebugCmdRun (DebugCmd)
                                                   EnterLowPower (SystemCtl)
                                                   GetCdmaCSQ (CdmaModule)
                                                   GetCdmaTime (CdmaModule)
                                                   GetLocationNbr (CdmaModule)
                                                   GpsCmdRun (GpsParse)
                                                   SendInfoToCenter (Communication)
                                                   SetLocationNbr (CdmaModule)
                                                   SystemIdleRun (SystemCtl)
               calls direct
               CSTACK = 00000000 ( 00000008 )
    -------------------------------------------------------------------------
<CODE> 1 (was CODE)
  Relative segment, address: B6DE - B749 (0x6c bytes), align: 1
  Segment part 5.
           ENTRY                   ADDRESS         REF BY
           =====                   =======         ======
           SwdFree                 B6DE            BdSendCmdICJC (BeiDouModule)
                                                   CdmaDeletMsg (DebugCmd)
                                                   CmdBeiDouBckRecNumSet (DebugCmd)
                                                   CmdBeiDouRecNumSet (DebugCmd)
                                                   CmdCdmaInfoTest (DebugCmd)
                                                   CmdSetCdmaLocationNbr (DebugCmd)
                                                   CmdSetCdmaReceivingNbr (DebugCmd)
                                                   GetCdmaCSQ (CdmaModule)
                                                   GetCdmaTime (CdmaModule)
                                                   GetLocationNbr (CdmaModule)
                                                   SetLocationNbr (CdmaModule)
                                                   SetSendInfoGapTime (DebugCmd)
                                                   SetSystemType (DebugCmd)
               calls direct
               CSTACK = 00000000 ( 00000008 )
    -------------------------------------------------------------------------
<CODE> 1 (was CODE)
  Relative segment, address: B8E2 - B945 (0x64 bytes), align: 1
  Segment part 4.
           ENTRY                   ADDRESS         REF BY
           =====                   =======         ======
           SwdRun                  B8E2            TimerA_ISR (Timer)
               CSTACK = 00000000 ( 00000004 )
    -------------------------------------------------------------------------
DATA20_C
  Relative segment, address: E6E4 - E6E7 (0x4 bytes), align: 0
  Segment part 2.             Intra module refs:   SwdInit

    *************************************************************************

  FILE NAME : F:\work\01.Location\Location\Project\Project_5438_New\Debug\Obj\SystemCtl.r43
  PROGRAM MODULE, NAME : SystemCtl

  SEGMENTS IN THE MODULE
  ======================
DATA16_AN
  Relative segment, address: 021A - 021B (0x2 bytes), align: 0
  Segment part 4. ROOT.       Intra module refs:   SystemIdleInit
           ENTRY                   ADDRESS         REF BY
           =====                   =======         ======
           _A_PAIE_L               021A 
           LOCAL                   ADDRESS         
           =====                   =======         
           PAIE                    021A 
           PAIE_H                  021B 
           PAIE_L                  021A 
    -------------------------------------------------------------------------
DATA16_AN
  Relative segment, address: 021C - 021D (0x2 bytes), align: 0
  Segment part 5. ROOT.       Intra module refs:   PORT1_ISR
           ENTRY                   ADDRESS         REF BY
           =====                   =======         ======
           _A_PAIFG_L              021C 
           LOCAL                   ADDRESS         
           =====                   =======         
           PAIFG                   021C 
           PAIFG_H                 021D 
           PAIFG_L                 021C 
    -------------------------------------------------------------------------
DATA16_AN
  Relative segment, address: 022A - 022B (0x2 bytes), align: 0
  Segment part 8. ROOT.       Intra module refs:   LpEnterCfg
                                                   LpExitCfg
                                                   Uart0Init (Uart0)
           ENTRY                   ADDRESS         REF BY
           =====                   =======         ======
           _A_PBSEL_L              022A 
           LOCAL                   ADDRESS         
           =====                   =======         
           PBSEL                   022A 
           PBSEL_H                 022B 
           PBSEL_L                 022A 
    -------------------------------------------------------------------------
DATA16_AN
  Relative segment, address: 026A - 026B (0x2 bytes), align: 0
  Segment part 14. ROOT.      Intra module refs:   InitClk
           ENTRY                   ADDRESS         REF BY
           =====                   =======         ======
           _A_PDSEL_L              026A 
           LOCAL                   ADDRESS         
           =====                   =======         
           PDSEL                   026A 
           PDSEL_H                 026B 
           PDSEL_L                 026A 
    -------------------------------------------------------------------------
DATA16_AN
  Relative segment, address: 0284 - 0285 (0x2 bytes), align: 0
  Segment part 16. ROOT.      Intra module refs:   LpEnterCfg
                                                   LpExitCfg
                                                   ReservedPinCfg
                                                   SystemInit
                                                   Uart2Init (Uart2)
                                                   Uart3Init (Uart3)
           ENTRY                   ADDRESS         REF BY
           =====                   =======         ======
           _A_PEDIR_L              0284 
           LOCAL                   ADDRESS         
           =====                   =======         
           PEDIR                   0284 
           PEDIR_H                 0285 
           PEDIR_L                 0284 
    -------------------------------------------------------------------------
DATA16_AN
  Relative segment, address: 028A - 028B (0x2 bytes), align: 0
  Segment part 17. ROOT.      Intra module refs:   LpEnterCfg
                                                   LpExitCfg
                                                   Uart2Init (Uart2)
                                                   Uart3Init (Uart3)
           ENTRY                   ADDRESS         REF BY
           =====                   =======         ======
           _A_PESEL_L              028A 
           LOCAL                   ADDRESS         
           =====                   =======         
           PESEL                   028A 
           PESEL_H                 028B 
           PESEL_L                 028A 
    -------------------------------------------------------------------------
DATA16_AN
  Relative segment, address: 02A2 - 02A3 (0x2 bytes), align: 0
  Segment part 18. ROOT.      Intra module refs:   ReservedPinCfg
           ENTRY                   ADDRESS         REF BY
           =====                   =======         ======
           _A_PFOUT_L              02A2 
           LOCAL                   ADDRESS         
           =====                   =======         
           PFOUT                   02A2 
           PFOUT_H                 02A3 
           PFOUT_L                 02A2 
    -------------------------------------------------------------------------
DATA16_AN
  Relative segment, address: 02A4 - 02A5 (0x2 bytes), align: 0
  Segment part 19. ROOT.      Intra module refs:   InitClk
                                                   ReservedPinCfg
           ENTRY                   ADDRESS         REF BY
           =====                   =======         ======
           _A_PFDIR_L              02A4 
           LOCAL                   ADDRESS         
           =====                   =======         
           PFDIR                   02A4 
           PFDIR_H                 02A5 
           PFDIR_L                 02A4 
    -------------------------------------------------------------------------
DATA16_AN
  Relative segment, address: 02A8 - 02A9 (0x2 bytes), align: 0
  Segment part 20. ROOT.      Intra module refs:   InitClk
           ENTRY                   ADDRESS         REF BY
           =====                   =======         ======
           _A_PFDS_L               02A8 
           LOCAL                   ADDRESS         
           =====                   =======         
           PFDS                    02A8 
           PFDS_H                  02A9 
           PFDS_L                  02A8 
    -------------------------------------------------------------------------
DATA16_AN
  Relative segment, address: 02AA - 02AB (0x2 bytes), align: 0
  Segment part 21. ROOT.      Intra module refs:   InitClk
           ENTRY                   ADDRESS         REF BY
           =====                   =======         ======
           _A_PFSEL_L              02AA 
           LOCAL                   ADDRESS         
           =====                   =======         
           PFSEL                   02AA 
           PFSEL_H                 02AB 
           PFSEL_L                 02AA 
    -------------------------------------------------------------------------
DATA16_AN
  Relative segment, address: 0102 - 0103 (0x2 bytes), align: 0
  Segment part 22. ROOT.      Intra module refs:   InitClk
           ENTRY                   ADDRESS         REF BY
           =====                   =======         ======
           _A_SFRIFG1_L            0102 
           LOCAL                   ADDRESS         
           =====                   =======         
           SFRIFG1                 0102 
           SFRIFG1_H               0103 
           SFRIFG1_L               0102 
    -------------------------------------------------------------------------
DATA16_AN
  Relative segment, address: 0160 - 0161 (0x2 bytes), align: 0
  Segment part 23. ROOT.      Intra module refs:   InitClk
           ENTRY                   ADDRESS         REF BY
           =====                   =======         ======
           _A_UCSCTL0_L            0160 
           LOCAL                   ADDRESS         
           =====                   =======         
           UCSCTL0                 0160 
           UCSCTL0_H               0161 
           UCSCTL0_L               0160 
    -------------------------------------------------------------------------
DATA16_AN
  Relative segment, address: 0162 - 0163 (0x2 bytes), align: 0
  Segment part 24. ROOT.      Intra module refs:   InitClk
           ENTRY                   ADDRESS         REF BY
           =====                   =======         ======
           _A_UCSCTL1_L            0162 
           LOCAL                   ADDRESS         
           =====                   =======         
           UCSCTL1                 0162 
           UCSCTL1_H               0163 
           UCSCTL1_L               0162 
    -------------------------------------------------------------------------
DATA16_AN
  Relative segment, address: 0164 - 0165 (0x2 bytes), align: 0
  Segment part 25. ROOT.      Intra module refs:   InitClk
           ENTRY                   ADDRESS         REF BY
           =====                   =======         ======
           _A_UCSCTL2_L            0164 
           LOCAL                   ADDRESS         
           =====                   =======         
           UCSCTL2                 0164 
           UCSCTL2_H               0165 
           UCSCTL2_L               0164 
    -------------------------------------------------------------------------
DATA16_AN
  Relative segment, address: 0168 - 0169 (0x2 bytes), align: 0
  Segment part 26. ROOT.      Intra module refs:   DcoSwitchXt1
                                                   InitClk
           ENTRY                   ADDRESS         REF BY
           =====                   =======         ======
           _A_UCSCTL4_L            0168 
           LOCAL                   ADDRESS         
           =====                   =======         
           UCSCTL4                 0168 
           UCSCTL4_H               0169 
           UCSCTL4_L               0168 
    -------------------------------------------------------------------------
DATA16_AN
  Relative segment, address: 016C - 016D (0x2 bytes), align: 0
  Segment part 27. ROOT.      Intra module refs:   InitClk
           ENTRY                   ADDRESS         REF BY
           =====                   =======         ======
           _A_UCSCTL6_L            016C 
           LOCAL                   ADDRESS         
           =====                   =======         
           UCSCTL6                 016C 
           UCSCTL6_H               016D 
           UCSCTL6_L               016C 
    -------------------------------------------------------------------------
DATA16_AN
  Relative segment, address: 016E - 016F (0x2 bytes), align: 0
  Segment part 28. ROOT.      Intra module refs:   InitClk
           ENTRY                   ADDRESS         REF BY
           =====                   =======         ======
           _A_UCSCTL7_L            016E 
           LOCAL                   ADDRESS         
           =====                   =======         
           UCSCTL7                 016E 
           UCSCTL7_H               016F 
           UCSCTL7_L               016E 
    -------------------------------------------------------------------------
DATA20_Z
  Relative segment, address: 206D - 206D (0x1 bytes), align: 0
  Segment part 35.            Intra module refs:   EnterLowPower
                                                   PORT1_ISR
           ENTRY                   ADDRESS         REF BY
           =====                   =======         ======
           g_bStandby              206D            SendInfoToCenter (Communication)
    -------------------------------------------------------------------------
DATA20_Z
  Relative segment, address: 206E - 206E (0x1 bytes), align: 0
  Segment part 36.
           ENTRY                   ADDRESS         REF BY
           =====                   =======         ======
           g_bDebug                206E            CdmaCmdHandler (CdmaModule)
                                                   CdmaCmdRun (CdmaModule)
                                                   CmdCdmaDebugClose (DebugCmd)
                                                   CmdCdmaDebugOpen (DebugCmd)
                                                   CmdGpsDebugClose (DebugCmd)
                                                   CmdGpsDebugOpen (DebugCmd)
                                                   GpsCmdRun (GpsParse)
                                                   GpsInfoProcess (GpsParse)
    -------------------------------------------------------------------------
DATA20_Z
  Relative segment, address: 206F - 206F (0x1 bytes), align: 0
  Segment part 37.            Intra module refs:   SystemIdleRun
                                                   SystemInit
           ENTRY                   ADDRESS         REF BY
           =====                   =======         ======
           g_bCdmaSend             206F            BeiDouToCdma (CdmaModule)
                                                   CdmaCmdRun (CdmaModule)
                                                   CdmaDeletMsg (DebugCmd)
                                                   CdmaRestInit (CdmaModule)
                                                   CdmaToBeiDou (CdmaModule)
                                                   CmdCdmaInfoTest (DebugCmd)
                                                   CmdGetCdmaCSQ (DebugCmd)
                                                   CmdGetCdmaLocationNbr (DebugCmd)
                                                   CmdGetCdmaTime (DebugCmd)
                                                   CmdSetCdmaLocationNbr (DebugCmd)
                                                   SendInfoToCenter (Communication)
                                                   UseAutoMode (DebugCmd)
                                                   UseCdmaMode (DebugCmd)
    -------------------------------------------------------------------------
DATA20_Z
  Relative segment, address: 2070 - 2070 (0x1 bytes), align: 0
  Segment part 38.            Intra module refs:   SystemInit
           ENTRY                   ADDRESS         REF BY
           =====                   =======         ======
           g_bBdSend               2070            BdCmdRun (BeiDouModule)
                                                   BeiDouToCdma (CdmaModule)
                                                   CdmaRestInit (CdmaModule)
                                                   CdmaToBeiDou (CdmaModule)
                                                   CmdBeiDouSendMsg (DebugCmd)
                                                   SendInfoToCenter (Communication)
                                                   UseBeiDouMode (DebugCmd)
    -------------------------------------------------------------------------
DATA20_Z
  Relative segment, address: 2071 - 2071 (0x1 bytes), align: 0
  Segment part 39.            Intra module refs:   PORT1_ISR
                                                   SystemInit
           ENTRY                   ADDRESS         REF BY
           =====                   =======         ======
           g_bSendInfo             2071            SendInfoToCenter (Communication)
    -------------------------------------------------------------------------
<CODE> 1 (was CODE)
  Relative segment, address: B3A8 - B421 (0x7a bytes), align: 1
  Segment part 51.            Intra module refs:   EnterLowPower
           ENTRY                   ADDRESS         REF BY
           =====                   =======         ======
           InitClk                 B3A8            main (main)
               CSTACK = 00000000 ( 00000004 )
    -------------------------------------------------------------------------
<CODE> 1 (was CODE)
  Relative segment, address: CC94 - CCA7 (0x14 bytes), align: 1
  Segment part 52.            Intra module refs:   EnterLowPower
           ENTRY                   ADDRESS         REF BY
           =====                   =======         ======
           DcoSwitchXt1            CC94 
               CSTACK = 00000000 ( 00000004 )
    -------------------------------------------------------------------------
<CODE> 1 (was CODE)
  Relative segment, address: AE94 - AF1D (0x8a bytes), align: 1
  Segment part 54.            Intra module refs:   SystemInit
           ENTRY                   ADDRESS         REF BY
           =====                   =======         ======
           ReservedPinCfg          AE94 
               CSTACK = 00000000 ( 00000004 )
    -------------------------------------------------------------------------
<CODE> 1 (was CODE)
  Relative segment, address: C764 - C78D (0x2a bytes), align: 1
  Segment part 57.
           ENTRY                   ADDRESS         REF BY
           =====                   =======         ======
           FlashLedEnable          C764            CdmaMsgParse (CdmaModule)
                                                   CmdFlashLedEnable (DebugCmd)
               CSTACK = 00000000 ( 00000004 )
    -------------------------------------------------------------------------
<CODE> 1 (was CODE)
  Relative segment, address: C78E - C7B7 (0x2a bytes), align: 1
  Segment part 56.
           ENTRY                   ADDRESS         REF BY
           =====                   =======         ======
           FlashLedDisable         C78E            CdmaMsgParse (CdmaModule)
                                                   CmdFlashLedDisable (DebugCmd)
               CSTACK = 00000000 ( 00000004 )
    -------------------------------------------------------------------------
<CODE> 1 (was CODE)
  Relative segment, address: AFA8 - B02F (0x88 bytes), align: 1
  Segment part 55.
           ENTRY                   ADDRESS         REF BY
           =====                   =======         ======
           SystemInit              AFA8            main (main)
               calls direct
               CSTACK = 00000000 ( 00000004 )
    -------------------------------------------------------------------------
DATA20_Z
  Relative segment, address: 2072 - 2072 (0x1 bytes), align: 0
  Segment part 42.            Intra module refs:   SystemIdleRun
           ENTRY                   ADDRESS         REF BY
           =====                   =======         ======
           bLedFlag                2072 
    -------------------------------------------------------------------------
DATA20_Z
  Relative segment, address: 2073 - 2073 (0x1 bytes), align: 0
  Segment part 43.            Intra module refs:   SystemIdleInit
                                                   SystemIdleRun
           ENTRY                   ADDRESS         REF BY
           =====                   =======         ======
           s8LedDog                2073 
    -------------------------------------------------------------------------
DATA20_Z
  Relative segment, address: 2074 - 207A (0x7 bytes), align: 0
  Segment part 44.            Intra module refs:   PORT1_ISR
           ENTRY                   ADDRESS         REF BY
           =====                   =======         ======
           sTime                   2074 
    -------------------------------------------------------------------------
ISR_CODE
  Relative segment, address: 5C70 - 5D07 (0x98 bytes), align: 1
  Segment part 58.            Intra module refs:   PORT1_ISR::??INTVEC 94
           ENTRY                   ADDRESS         REF BY
           =====                   =======         ======
           PORT1_ISR               5C70 
               interrupt function
               calls direct
               CSTACK = 00000000 ( 00000014 )
    -------------------------------------------------------------------------
<CODE> 1 (was CODE)
  Relative segment, address: B5F8 - B66B (0x74 bytes), align: 1
  Segment part 50.            Intra module refs:   EnterLowPower
           ENTRY                   ADDRESS         REF BY
           =====                   =======         ======
           AutoSystemGapTime       B5F8 
               CSTACK = 00000000 ( 0000000C )
    -------------------------------------------------------------------------
DATA20_Z
  Relative segment, address: 207B - 207B (0x1 bytes), align: 0
  Segment part 45.            Intra module refs:   AutoSystemGapTime
           LOCAL                   ADDRESS         
           =====                   =======         
           AutoSystemGapTime::u8OldDay
                                   207B 
    -------------------------------------------------------------------------
<CODE> 1 (was CODE)
  Relative segment, address: 8ED8 - 8FED (0x116 bytes), align: 1
  Segment part 53.
           ENTRY                   ADDRESS         REF BY
           =====                   =======         ======
           EnterLowPower           8ED8            main (main)
               calls direct
               CSTACK = 00000000 ( 00000004 )
    -------------------------------------------------------------------------
<CODE> 1 (was CODE)
  Relative segment, address: C130 - C167 (0x38 bytes), align: 1
  Segment part 49.
           ENTRY                   ADDRESS         REF BY
           =====                   =======         ======
           SystemIdleInit          C130            main (main)
               calls direct
               CSTACK = 00000000 ( 00000004 )
    -------------------------------------------------------------------------
<CODE> 1 (was CODE)
  Relative segment, address: AF1E - AFA7 (0x8a bytes), align: 1
  Segment part 48.
           ENTRY                   ADDRESS         REF BY
           =====                   =======         ======
           SystemIdleRun           AF1E            main (main)
               calls direct
               CSTACK = 00000000 ( 00000004 )
    -------------------------------------------------------------------------
<CODE> 1 (was CODE)
  Relative segment, address: B0B4 - B137 (0x84 bytes), align: 1
  Segment part 47.            Intra module refs:   EnterLowPower
           ENTRY                   ADDRESS         REF BY
           =====                   =======         ======
           LpEnterCfg              B0B4 
               CSTACK = 00000000 ( 00000004 )
    -------------------------------------------------------------------------
<CODE> 1 (was CODE)
  Relative segment, address: BD9E - BDE7 (0x4a bytes), align: 1
  Segment part 46.            Intra module refs:   EnterLowPower
           ENTRY                   ADDRESS         REF BY
           =====                   =======         ======
           LpExitCfg               BD9E 
               CSTACK = 00000000 ( 00000004 )
    -------------------------------------------------------------------------
INTVEC
  Common segment, address: FF80 - FFDF (0x60 bytes), align: 1
  Segment part 30. ROOT.
           ENTRY                   ADDRESS         REF BY
           =====                   =======         ======
           PORT1_ISR::??INTVEC 94
                                   FFDE 
    -------------------------------------------------------------------------
DATA20_C
  Relative segment, address: E6E8 - E6FF (0x18 bytes), align: 0
  Segment part 32.            Intra module refs:   EnterLowPower
    -------------------------------------------------------------------------
DATA20_C
  Relative segment, address: E700 - E719 (0x1a bytes), align: 0
  Segment part 33.            Intra module refs:   EnterLowPower
    -------------------------------------------------------------------------
DATA20_C
  Relative segment, address: E71A - E722 (0x9 bytes), align: 0
  Segment part 34.            Intra module refs:   SystemIdleInit

    *************************************************************************

  FILE NAME : F:\work\01.Location\Location\Project\Project_5438_New\Debug\Obj\Timer.r43
  PROGRAM MODULE, NAME : Timer

  SEGMENTS IN THE MODULE
  ======================
DATA16_AN
  Relative segment, address: 0340 - 0341 (0x2 bytes), align: 0
  Segment part 1. ROOT.       Intra module refs:   TimerA_Init
           ENTRY                   ADDRESS         REF BY
           =====                   =======         ======
           TA0CTL                  0340 
    -------------------------------------------------------------------------
DATA16_AN
  Relative segment, address: 0342 - 0343 (0x2 bytes), align: 0
  Segment part 2. ROOT.       Intra module refs:   TimerA_Init
                                                   TimerInterruptDisable
                                                   TimerInterruptEnable
           ENTRY                   ADDRESS         REF BY
           =====                   =======         ======
           TA0CCTL0                0342 
    -------------------------------------------------------------------------
DATA16_AN
  Relative segment, address: 0352 - 0353 (0x2 bytes), align: 0
  Segment part 3. ROOT.       Intra module refs:   TimerA_Init
           ENTRY                   ADDRESS         REF BY
           =====                   =======         ======
           TA0CCR0                 0352 
    -------------------------------------------------------------------------
<CODE> 1 (was CODE)
  Relative segment, address: CBA6 - CBBD (0x18 bytes), align: 1
  Segment part 9.
           ENTRY                   ADDRESS         REF BY
           =====                   =======         ======
           TimerA_Init             CBA6            main (main)
               calls direct
               CSTACK = 00000000 ( 00000004 )
    -------------------------------------------------------------------------
<CODE> 1 (was CODE)
  Relative segment, address: CED8 - CEDF (0x8 bytes), align: 1
  Segment part 8.
           ENTRY                   ADDRESS         REF BY
           =====                   =======         ======
           TimerInterruptEnable    CED8            EnterLowPower (SystemCtl)
                                                   SwdDisable (SoftTimer)
                                                   SwdEnable (SoftTimer)
                                                   SwdFree (SoftTimer)
                                                   SwdGetLifeTime (SoftTimer)
                                                   SwdInit (SoftTimer)
                                                   SwdIsEnable (SoftTimer)
                                                   SwdReset (SoftTimer)
                                                   SwdSetLifeTime (SoftTimer)
               CSTACK = 00000000 ( 00000004 )
    -------------------------------------------------------------------------
<CODE> 1 (was CODE)
  Relative segment, address: CED0 - CED7 (0x8 bytes), align: 1
  Segment part 7.
           ENTRY                   ADDRESS         REF BY
           =====                   =======         ======
           TimerInterruptDisable   CED0            EnterLowPower (SystemCtl)
                                                   SwdDisable (SoftTimer)
                                                   SwdEnable (SoftTimer)
                                                   SwdFree (SoftTimer)
                                                   SwdGetLifeTime (SoftTimer)
                                                   SwdInit (SoftTimer)
                                                   SwdIsEnable (SoftTimer)
                                                   SwdReset (SoftTimer)
                                                   SwdSetLifeTime (SoftTimer)
               CSTACK = 00000000 ( 00000004 )
    -------------------------------------------------------------------------
ISR_CODE
  Relative segment, address: 5D08 - 5D1D (0x16 bytes), align: 1
  Segment part 6.             Intra module refs:   TimerA_ISR::??INTVEC 108
           ENTRY                   ADDRESS         REF BY
           =====                   =======         ======
           TimerA_ISR              5D08 
               interrupt function
               calls direct
               CSTACK = 00000000 ( 00000014 )
    -------------------------------------------------------------------------
INTVEC
  Common segment, address: FF80 - FFED (0x6e bytes), align: 1
  Segment part 4. ROOT.
           ENTRY                   ADDRESS         REF BY
           =====                   =======         ======
           TimerA_ISR::??INTVEC 108
                                   FFEC 

    *************************************************************************

  FILE NAME : F:\work\01.Location\Location\Project\Project_5438_New\Debug\Obj\Uart0.r43
  PROGRAM MODULE, NAME : Uart0

  SEGMENTS IN THE MODULE
  ======================
DATA16_AN
  Relative segment, address: 05C0 - 05C1 (0x2 bytes), align: 0
  Segment part 3. ROOT.       Intra module refs:   Uart0Init
           ENTRY                   ADDRESS         REF BY
           =====                   =======         ======
           _A_UCA0CTLW0_L          05C0 
           LOCAL                   ADDRESS         
           =====                   =======         
           UCA0CTLW0               05C0 
           UCA0CTLW0_H             05C1 
           UCA0CTLW0_L             05C0 
    -------------------------------------------------------------------------
DATA16_AN
  Relative segment, address: 05C6 - 05C7 (0x2 bytes), align: 0
  Segment part 4. ROOT.       Intra module refs:   Uart0Init
           ENTRY                   ADDRESS         REF BY
           =====                   =======         ======
           _A_UCA0BRW_L            05C6 
           LOCAL                   ADDRESS         
           =====                   =======         
           UCA0BRW                 05C6 
           UCA0BRW_H               05C7 
           UCA0BRW_L               05C6 
    -------------------------------------------------------------------------
DATA16_AN
  Relative segment, address: 05C8 - 05C8 (0x1 bytes), align: 0
  Segment part 5. ROOT.       Intra module refs:   Uart0Init
           ENTRY                   ADDRESS         REF BY
           =====                   =======         ======
           UCA0MCTL                05C8 
    -------------------------------------------------------------------------
DATA16_AN
  Relative segment, address: 05CC - 05CC (0x1 bytes), align: 0
  Segment part 6. ROOT.       Intra module refs:   UART0_RXISR
           ENTRY                   ADDRESS         REF BY
           =====                   =======         ======
           UCA0RXBUF               05CC 
    -------------------------------------------------------------------------
DATA16_AN
  Relative segment, address: 05CE - 05CE (0x1 bytes), align: 0
  Segment part 7. ROOT.
           ENTRY                   ADDRESS         REF BY
           =====                   =======         ======
           UCA0TXBUF               05CE 
    -------------------------------------------------------------------------
DATA16_AN
  Relative segment, address: 05DC - 05DD (0x2 bytes), align: 0
  Segment part 8. ROOT.       Intra module refs:   Uart0DisableInterrupt
                                                   Uart0EmptyRxBuf
                                                   Uart0GetByte
                                                   Uart0GetRxDataLength
                                                   Uart0Init
           ENTRY                   ADDRESS         REF BY
           =====                   =======         ======
           _A_UCA0ICTL_L           05DC 
           LOCAL                   ADDRESS         
           =====                   =======         
           UCA0ICTL                05DC 
           UCA0ICTL_H              05DD 
           UCA0ICTL_L              05DC 
    -------------------------------------------------------------------------
DATA20_Z
  Relative segment, address: 1EB0 - 1EB9 (0xa bytes), align: 1
  Segment part 11.            Intra module refs:   UART0_RXISR
                                                   Uart0EmptyRxBuf
                                                   Uart0GetByte
                                                   Uart0GetRxDataLength
                                                   Uart0Init
           ENTRY                   ADDRESS         REF BY
           =====                   =======         ======
           sUart0Cb                1EB0 
    -------------------------------------------------------------------------
<CODE> 1 (was CODE)
  Relative segment, address: BB0E - BB65 (0x58 bytes), align: 1
  Segment part 23.
           ENTRY                   ADDRESS         REF BY
           =====                   =======         ======
           Uart0Init               BB0E            main (main)
               calls direct
               CSTACK = 00000000 ( 00000004 )
    -------------------------------------------------------------------------
<CODE> 1 (was CODE)
  Relative segment, address: CEF6 - CEFB (0x6 bytes), align: 1
  Segment part 18.
           ENTRY                   ADDRESS         REF BY
           =====                   =======         ======
           Uart0DisableInterrupt   CEF6            GpsCmdRun (GpsParse)
               CSTACK = 00000000 ( 00000004 )
    -------------------------------------------------------------------------
<CODE> 1 (was CODE)
  Relative segment, address: CDDC - CDEB (0x10 bytes), align: 1
  Segment part 17.
           ENTRY                   ADDRESS         REF BY
           =====                   =======         ======
           Uart0GetRxDataLength    CDDC            GpsCmdRun (GpsParse)
               CSTACK = 00000000 ( 00000004 )
    -------------------------------------------------------------------------
<CODE> 1 (was CODE)
  Relative segment, address: C432 - C465 (0x34 bytes), align: 1
  Segment part 16.
           ENTRY                   ADDRESS         REF BY
           =====                   =======         ======
           Uart0GetByte            C432            GpsCmdRun (GpsParse)
               CSTACK = 00000000 ( 00000004 )
    -------------------------------------------------------------------------
<CODE> 1 (was CODE)
  Relative segment, address: CAE6 - CB01 (0x1c bytes), align: 1
  Segment part 13.
           ENTRY                   ADDRESS         REF BY
           =====                   =======         ======
           Uart0EmptyRxBuf         CAE6            GpsCmdRun (GpsParse)
               CSTACK = 00000000 ( 00000004 )
    -------------------------------------------------------------------------
ISR_CODE
  Relative segment, address: 5D1E - 5D5D (0x40 bytes), align: 1
  Segment part 12.            Intra module refs:   UART0_RXISR::??INTVEC 114
           ENTRY                   ADDRESS         REF BY
           =====                   =======         ======
           UART0_RXISR             5D1E 
               interrupt function
               CSTACK = 00000000 ( 00000010 )
    -------------------------------------------------------------------------
INTVEC
  Common segment, address: FF80 - FFF3 (0x74 bytes), align: 1
  Segment part 9. ROOT.
           ENTRY                   ADDRESS         REF BY
           =====                   =======         ======
           UART0_RXISR::??INTVEC 114
                                   FFF2 

    *************************************************************************

  FILE NAME : F:\work\01.Location\Location\Project\Project_5438_New\Debug\Obj\Uart1.r43
  PROGRAM MODULE, NAME : Uart1

  SEGMENTS IN THE MODULE
  ======================
DATA16_AN
  Relative segment, address: 0600 - 0601 (0x2 bytes), align: 0
  Segment part 3. ROOT.       Intra module refs:   Uart1Init
           ENTRY                   ADDRESS         REF BY
           =====                   =======         ======
           _A_UCA1CTLW0_L          0600 
           LOCAL                   ADDRESS         
           =====                   =======         
           UCA1CTLW0               0600 
           UCA1CTLW0_H             0601 
           UCA1CTLW0_L             0600 
    -------------------------------------------------------------------------
DATA16_AN
  Relative segment, address: 0606 - 0607 (0x2 bytes), align: 0
  Segment part 4. ROOT.       Intra module refs:   Uart1Init
           ENTRY                   ADDRESS         REF BY
           =====                   =======         ======
           _A_UCA1BRW_L            0606 
           LOCAL                   ADDRESS         
           =====                   =======         
           UCA1BRW                 0606 
           UCA1BRW_H               0607 
           UCA1BRW_L               0606 
    -------------------------------------------------------------------------
DATA16_AN
  Relative segment, address: 0608 - 0608 (0x1 bytes), align: 0
  Segment part 5. ROOT.       Intra module refs:   Uart1Init
           ENTRY                   ADDRESS         REF BY
           =====                   =======         ======
           UCA1MCTL                0608 
    -------------------------------------------------------------------------
DATA16_AN
  Relative segment, address: 060C - 060C (0x1 bytes), align: 0
  Segment part 6. ROOT.       Intra module refs:   UART1_RXISR
           ENTRY                   ADDRESS         REF BY
           =====                   =======         ======
           UCA1RXBUF               060C 
    -------------------------------------------------------------------------
DATA16_AN
  Relative segment, address: 060E - 060E (0x1 bytes), align: 0
  Segment part 7. ROOT.       Intra module refs:   Uart1SendBuffer
           ENTRY                   ADDRESS         REF BY
           =====                   =======         ======
           UCA1TXBUF               060E 
    -------------------------------------------------------------------------
DATA16_AN
  Relative segment, address: 061C - 061D (0x2 bytes), align: 0
  Segment part 8. ROOT.       Intra module refs:   Uart1EmptyRxBuf
                                                   Uart1GetByte
                                                   Uart1GetRxData
                                                   Uart1GetRxDataLength
                                                   Uart1Init
                                                   Uart1InsertByte
                                                   Uart1SendBuffer
           ENTRY                   ADDRESS         REF BY
           =====                   =======         ======
           _A_UCA1ICTL_L           061C 
           LOCAL                   ADDRESS         
           =====                   =======         
           UCA1ICTL                061C 
           UCA1ICTL_H              061D 
           UCA1ICTL_L              061C 
    -------------------------------------------------------------------------
DATA16_AN
  Relative segment, address: 064E - 064E (0x1 bytes), align: 0
  Segment part 9. ROOT.       Intra module refs:   UART1_RXISR
                                                   Uart2SendBuffer (Uart2)
                                                   Uart2SendString (Uart2)
           ENTRY                   ADDRESS         REF BY
           =====                   =======         ======
           UCA2TXBUF               064E 
    -------------------------------------------------------------------------
DATA20_Z
  Relative segment, address: 1EBA - 1EC3 (0xa bytes), align: 1
  Segment part 12.            Intra module refs:   UART1_RXISR
                                                   Uart1EmptyRxBuf
                                                   Uart1GetByte
                                                   Uart1GetRxData
                                                   Uart1GetRxDataLength
                                                   Uart1Init
                                                   Uart1InsertByte
           ENTRY                   ADDRESS         REF BY
           =====                   =======         ======
           sUart1Cb                1EBA 
    -------------------------------------------------------------------------
<CODE> 1 (was CODE)
  Relative segment, address: BA5E - BAB5 (0x58 bytes), align: 1
  Segment part 24.
           ENTRY                   ADDRESS         REF BY
           =====                   =======         ======
           Uart1Init               BA5E            main (main)
               calls direct
               CSTACK = 00000000 ( 00000004 )
    -------------------------------------------------------------------------
<CODE> 1 (was CODE)
  Relative segment, address: CC4E - CC65 (0x18 bytes), align: 1
  Segment part 21.
           ENTRY                   ADDRESS         REF BY
           =====                   =======         ======
           Uart1SendBuffer         CC4E            CdmaSendMsg (CdmaModule)
               CSTACK = 00000000 ( 00000004 )
    -------------------------------------------------------------------------
<CODE> 1 (was CODE)
  Relative segment, address: CDCC - CDDB (0x10 bytes), align: 1
  Segment part 18.
           ENTRY                   ADDRESS         REF BY
           =====                   =======         ======
           Uart1GetRxDataLength    CDCC            CdmaCmdRun (CdmaModule)
                                                   GetCdmaCSQ (CdmaModule)
                                                   GetCdmaTime (CdmaModule)
                                                   GetLocationNbr (CdmaModule)
                                                   SetLocationNbr (CdmaModule)
               CSTACK = 00000000 ( 00000004 )
    -------------------------------------------------------------------------
<CODE> 1 (was CODE)
  Relative segment, address: C49A - C4CD (0x34 bytes), align: 1
  Segment part 17.
           ENTRY                   ADDRESS         REF BY
           =====                   =======         ======
           Uart1GetByte            C49A            CdmaCmdRun (CdmaModule)
                                                   SetLocationNbr (CdmaModule)
               CSTACK = 00000000 ( 00000004 )
    -------------------------------------------------------------------------
<CODE> 1 (was CODE)
  Relative segment, address: C210 - C247 (0x38 bytes), align: 1
  Segment part 16.
           ENTRY                   ADDRESS         REF BY
           =====                   =======         ======
           Uart1InsertByte         C210            CdmaCmdAssemble (CdmaModule)
               CSTACK = 00000000 ( 00000004 )
    -------------------------------------------------------------------------
<CODE> 1 (was CODE)
  Relative segment, address: A642 - A6E7 (0xa6 bytes), align: 1
  Segment part 15.
           ENTRY                   ADDRESS         REF BY
           =====                   =======         ======
           Uart1GetRxData          A642            GetCdmaCSQ (CdmaModule)
                                                   GetCdmaTime (CdmaModule)
                                                   GetLocationNbr (CdmaModule)
               calls direct
               CSTACK = 00000000 ( 00000014 )
    -------------------------------------------------------------------------
<CODE> 1 (was CODE)
  Relative segment, address: CB1E - CB39 (0x1c bytes), align: 1
  Segment part 14.
           ENTRY                   ADDRESS         REF BY
           =====                   =======         ======
           Uart1EmptyRxBuf         CB1E            CdmaInit (CdmaModule)
                                                   GetCdmaCSQ (CdmaModule)
                                                   GetCdmaTime (CdmaModule)
                                                   GetLocationNbr (CdmaModule)
                                                   SetLocationNbr (CdmaModule)
               CSTACK = 00000000 ( 00000004 )
    -------------------------------------------------------------------------
ISR_CODE
  Relative segment, address: 5D5E - 5DA1 (0x44 bytes), align: 1
  Segment part 13.            Intra module refs:   UART1_RXISR::??INTVEC 92
           ENTRY                   ADDRESS         REF BY
           =====                   =======         ======
           UART1_RXISR             5D5E 
               interrupt function
               CSTACK = 00000000 ( 00000010 )
    -------------------------------------------------------------------------
INTVEC
  Common segment, address: FF80 - FFDD (0x5e bytes), align: 1
  Segment part 10. ROOT.
           ENTRY                   ADDRESS         REF BY
           =====                   =======         ======
           UART1_RXISR::??INTVEC 92
                                   FFDC 

    *************************************************************************

  FILE NAME : F:\work\01.Location\Location\Project\Project_5438_New\Debug\Obj\Uart2.r43
  PROGRAM MODULE, NAME : Uart2

  SEGMENTS IN THE MODULE
  ======================
DATA16_AN
  Relative segment, address: 0640 - 0641 (0x2 bytes), align: 0
  Segment part 3. ROOT.       Intra module refs:   Uart2Init
           ENTRY                   ADDRESS         REF BY
           =====                   =======         ======
           _A_UCA2CTLW0_L          0640 
           LOCAL                   ADDRESS         
           =====                   =======         
           UCA2CTLW0               0640 
           UCA2CTLW0_H             0641 
           UCA2CTLW0_L             0640 
    -------------------------------------------------------------------------
DATA16_AN
  Relative segment, address: 0646 - 0647 (0x2 bytes), align: 0
  Segment part 4. ROOT.       Intra module refs:   Uart2Init
           ENTRY                   ADDRESS         REF BY
           =====                   =======         ======
           _A_UCA2BRW_L            0646 
           LOCAL                   ADDRESS         
           =====                   =======         
           UCA2BRW                 0646 
           UCA2BRW_H               0647 
           UCA2BRW_L               0646 
    -------------------------------------------------------------------------
DATA16_AN
  Relative segment, address: 0648 - 0648 (0x1 bytes), align: 0
  Segment part 5. ROOT.       Intra module refs:   Uart2Init
           ENTRY                   ADDRESS         REF BY
           =====                   =======         ======
           UCA2MCTL                0648 
    -------------------------------------------------------------------------
DATA16_AN
  Relative segment, address: 064C - 064C (0x1 bytes), align: 0
  Segment part 6. ROOT.       Intra module refs:   UART2_RXISR
           ENTRY                   ADDRESS         REF BY
           =====                   =======         ======
           UCA2RXBUF               064C 
    -------------------------------------------------------------------------
DATA16_AN
  Relative segment, address: 065C - 065D (0x2 bytes), align: 0
  Segment part 8. ROOT.       Intra module refs:   Uart2EmptyRxBuf
                                                   Uart2EnableInterrupt
                                                   Uart2GetByte
                                                   Uart2GetRxData
                                                   Uart2GetRxDataLength
                                                   Uart2Init
                                                   Uart2SendBuffer
                                                   Uart2SendString
           ENTRY                   ADDRESS         REF BY
           =====                   =======         ======
           _A_UCA2ICTL_L           065C 
           LOCAL                   ADDRESS         
           =====                   =======         
           UCA2ICTL                065C 
           UCA2ICTL_H              065D 
           UCA2ICTL_L              065C 
    -------------------------------------------------------------------------
DATA20_Z
  Relative segment, address: 1EC4 - 1ECD (0xa bytes), align: 1
  Segment part 11.            Intra module refs:   UART2_RXISR
                                                   Uart2EmptyRxBuf
                                                   Uart2GetByte
                                                   Uart2GetRxData
                                                   Uart2GetRxDataLength
                                                   Uart2Init
           ENTRY                   ADDRESS         REF BY
           =====                   =======         ======
           sUart2Cb                1EC4 
    -------------------------------------------------------------------------
<CODE> 1 (was CODE)
  Relative segment, address: BAB6 - BB0D (0x58 bytes), align: 1
  Segment part 22.
           ENTRY                   ADDRESS         REF BY
           =====                   =======         ======
           Uart2Init               BAB6            main (main)
               calls direct
               CSTACK = 00000000 ( 00000004 )
    -------------------------------------------------------------------------
<CODE> 1 (was CODE)
  Relative segment, address: CBD6 - CBED (0x18 bytes), align: 1
  Segment part 20.
           ENTRY                   ADDRESS         REF BY
           =====                   =======         ======
           Uart2SendString         CBD6            AdcDetect (BatteryDetect)
                                                   CdmaCmdHandler (CdmaModule)
                                                   CdmaDeletMsg (DebugCmd)
                                                   CmdBeiDouBckRecNumGet (DebugCmd)
                                                   CmdBeiDouBckRecNumSet (DebugCmd)
                                                   CmdBeiDouClrSendSuccess (DebugCmd)
                                                   CmdBeiDouGetSendSuccess (DebugCmd)
                                                   CmdBeiDouLocNumGet (DebugCmd)
                                                   CmdBeiDouRecNumGet (DebugCmd)
                                                   CmdBeiDouRecNumSet (DebugCmd)
                                                   CmdBeiDouSendMsg (DebugCmd)
                                                   CmdCdmaDebugClose (DebugCmd)
                                                   CmdCdmaDebugOpen (DebugCmd)
                                                   CmdCdmaInfoTest (DebugCmd)
                                                   CmdGetCdmaCSQ (DebugCmd)
                                                   CmdGetCdmaLocationNbr (DebugCmd)
                                                   CmdGetCdmaReceivingNbr (DebugCmd)
                                                   CmdGetCdmaTime (DebugCmd)
                                                   CmdGpsDebugClose (DebugCmd)
                                                   CmdGpsDebugOpen (DebugCmd)
                                                   CmdParseFKXX (BeiDouModule)
                                                   CmdParseTXXX (BeiDouModule)
                                                   CmdSetCdmaLocationNbr (DebugCmd)
                                                   CmdSetCdmaReceivingNbr (DebugCmd)
                                                   EnterLowPower (SystemCtl)
                                                   GetBatteryRemainPower (DebugCmd)
                                                   GetBufBdInfo (BeiDouModule)
                                                   GetRtcTime (DebugCmd)
                                                   GetSendInfoGapTime (DebugCmd)
                                                   GetSystemType (DebugCmd)
                                                   GetSystemVersionInfo (DebugCmd)
                                                   GpsInfoProcess (GpsParse)
                                                   PrintfCmdList (DebugCmd)
                                                   SendInfoToCenter (Communication)
                                                   SetRtcTime (DebugCmd)
                                                   SetSendInfoGapTime (DebugCmd)
                                                   SetSystemType (DebugCmd)
                                                   SystemRunTimeClear (DebugCmd)
                                                   SystemRunTimeGet (DebugCmd)
                                                   UartHandShake (DebugCmd)
                                                   UseBeiDouMode (DebugCmd)
                                                   UseCdmaMode (DebugCmd)
                                                   main (main)
               CSTACK = 00000000 ( 00000004 )
    -------------------------------------------------------------------------
<CODE> 1 (was CODE)
  Relative segment, address: CBEE - CC05 (0x18 bytes), align: 1
  Segment part 19.
           ENTRY                   ADDRESS         REF BY
           =====                   =======         ======
           Uart2SendBuffer         CBEE            AdcDetect (BatteryDetect)
                                                   CdmaCmdRun (CdmaModule)
                                                   CdmaDeletMsg (DebugCmd)
                                                   CmdBeiDouBckRecNumGet (DebugCmd)
                                                   CmdBeiDouBckRecNumSet (DebugCmd)
                                                   CmdBeiDouGetSendSuccess (DebugCmd)
                                                   CmdBeiDouLocNumGet (DebugCmd)
                                                   CmdBeiDouRecNumGet (DebugCmd)
                                                   CmdBeiDouRecNumSet (DebugCmd)
                                                   CmdCdmaInfoTest (DebugCmd)
                                                   CmdGetCdmaCSQ (DebugCmd)
                                                   CmdGetCdmaLocationNbr (DebugCmd)
                                                   CmdGetCdmaReceivingNbr (DebugCmd)
                                                   CmdGetCdmaTime (DebugCmd)
                                                   CmdParseTXXX (BeiDouModule)
                                                   CmdSetCdmaLocationNbr (DebugCmd)
                                                   CmdSetCdmaReceivingNbr (DebugCmd)
                                                   GetBufBdInfo (BeiDouModule)
                                                   GetRtcTime (DebugCmd)
                                                   GetSendInfoGapTime (DebugCmd)
                                                   GetSystemType (DebugCmd)
                                                   GetSystemVersionInfo (DebugCmd)
                                                   GpsCmdRun (GpsParse)
                                                   GpsInfoProcess (GpsParse)
                                                   SystemRunTimeGet (DebugCmd)
               CSTACK = 00000000 ( 00000004 )
    -------------------------------------------------------------------------
<CODE> 1 (was CODE)
  Relative segment, address: CEF0 - CEF5 (0x6 bytes), align: 1
  Segment part 18.
           ENTRY                   ADDRESS         REF BY
           =====                   =======         ======
           Uart2EnableInterrupt    CEF0            EnterLowPower (SystemCtl)
               CSTACK = 00000000 ( 00000004 )
    -------------------------------------------------------------------------
<CODE> 1 (was CODE)
  Relative segment, address: CDAC - CDBB (0x10 bytes), align: 1
  Segment part 16.
           ENTRY                   ADDRESS         REF BY
           =====                   =======         ======
           Uart2GetRxDataLength    CDAC            CdmaDeletMsg (DebugCmd)
                                                   CmdBeiDouBckRecNumSet (DebugCmd)
                                                   CmdBeiDouRecNumSet (DebugCmd)
                                                   CmdCdmaInfoTest (DebugCmd)
                                                   CmdSetCdmaLocationNbr (DebugCmd)
                                                   CmdSetCdmaReceivingNbr (DebugCmd)
                                                   DebugCmdRun (DebugCmd)
                                                   SetSendInfoGapTime (DebugCmd)
                                                   SetSystemType (DebugCmd)
               CSTACK = 00000000 ( 00000004 )
    -------------------------------------------------------------------------
<CODE> 1 (was CODE)
  Relative segment, address: C466 - C499 (0x34 bytes), align: 1
  Segment part 15.
           ENTRY                   ADDRESS         REF BY
           =====                   =======         ======
           Uart2GetByte            C466            CmdBeiDouBckRecNumSet (DebugCmd)
                                                   CmdBeiDouRecNumSet (DebugCmd)
                                                   DebugCmdRun (DebugCmd)
               CSTACK = 00000000 ( 00000004 )
    -------------------------------------------------------------------------
<CODE> 1 (was CODE)
  Relative segment, address: A6E8 - A78D (0xa6 bytes), align: 1
  Segment part 14.
           ENTRY                   ADDRESS         REF BY
           =====                   =======         ======
           Uart2GetRxData          A6E8            CdmaDeletMsg (DebugCmd)
                                                   CmdCdmaInfoTest (DebugCmd)
                                                   CmdSetCdmaLocationNbr (DebugCmd)
                                                   CmdSetCdmaReceivingNbr (DebugCmd)
                                                   SetSendInfoGapTime (DebugCmd)
                                                   SetSystemType (DebugCmd)
               calls direct
               CSTACK = 00000000 ( 00000014 )
    -------------------------------------------------------------------------
<CODE> 1 (was CODE)
  Relative segment, address: CB02 - CB1D (0x1c bytes), align: 1
  Segment part 13.
           ENTRY                   ADDRESS         REF BY
           =====                   =======         ======
           Uart2EmptyRxBuf         CB02            CmdSetCdmaReceivingNbr (DebugCmd)
                                                   SetSendInfoGapTime (DebugCmd)
                                                   SetSystemType (DebugCmd)
               CSTACK = 00000000 ( 00000004 )
    -------------------------------------------------------------------------
ISR_CODE
  Relative segment, address: 5DA2 - 5DE1 (0x40 bytes), align: 1
  Segment part 12.            Intra module refs:   UART2_RXISR::??INTVEC 104
           ENTRY                   ADDRESS         REF BY
           =====                   =======         ======
           UART2_RXISR             5DA2 
               interrupt function
               CSTACK = 00000000 ( 00000010 )
    -------------------------------------------------------------------------
INTVEC
  Common segment, address: FF80 - FFE9 (0x6a bytes), align: 1
  Segment part 9. ROOT.
           ENTRY                   ADDRESS         REF BY
           =====                   =======         ======
           UART2_RXISR::??INTVEC 104
                                   FFE8 

    *************************************************************************

  FILE NAME : F:\work\01.Location\Location\Project\Project_5438_New\Debug\Obj\Uart3.r43
  PROGRAM MODULE, NAME : Uart3

  SEGMENTS IN THE MODULE
  ======================
DATA16_AN
  Relative segment, address: 0680 - 0681 (0x2 bytes), align: 0
  Segment part 3. ROOT.       Intra module refs:   Uart3Init
           ENTRY                   ADDRESS         REF BY
           =====                   =======         ======
           _A_UCA3CTLW0_L          0680 
           LOCAL                   ADDRESS         
           =====                   =======         
           UCA3CTLW0               0680 
           UCA3CTLW0_H             0681 
           UCA3CTLW0_L             0680 
    -------------------------------------------------------------------------
DATA16_AN
  Relative segment, address: 0686 - 0687 (0x2 bytes), align: 0
  Segment part 4. ROOT.       Intra module refs:   Uart3Init
           ENTRY                   ADDRESS         REF BY
           =====                   =======         ======
           _A_UCA3BRW_L            0686 
           LOCAL                   ADDRESS         
           =====                   =======         
           UCA3BRW                 0686 
           UCA3BRW_H               0687 
           UCA3BRW_L               0686 
    -------------------------------------------------------------------------
DATA16_AN
  Relative segment, address: 0688 - 0688 (0x1 bytes), align: 0
  Segment part 5. ROOT.       Intra module refs:   Uart3Init
           ENTRY                   ADDRESS         REF BY
           =====                   =======         ======
           UCA3MCTL                0688 
    -------------------------------------------------------------------------
DATA16_AN
  Relative segment, address: 068C - 068C (0x1 bytes), align: 0
  Segment part 6. ROOT.       Intra module refs:   UART3_RXISR
           ENTRY                   ADDRESS         REF BY
           =====                   =======         ======
           UCA3RXBUF               068C 
    -------------------------------------------------------------------------
DATA16_AN
  Relative segment, address: 068E - 068E (0x1 bytes), align: 0
  Segment part 7. ROOT.       Intra module refs:   Uart3SendBuffer
           ENTRY                   ADDRESS         REF BY
           =====                   =======         ======
           UCA3TXBUF               068E 
    -------------------------------------------------------------------------
DATA16_AN
  Relative segment, address: 069C - 069D (0x2 bytes), align: 0
  Segment part 8. ROOT.       Intra module refs:   Uart3EmptyRxBuf
                                                   Uart3GetByte
                                                   Uart3GetRxData
                                                   Uart3GetRxDataLength
                                                   Uart3Init
                                                   Uart3SendBuffer
           ENTRY                   ADDRESS         REF BY
           =====                   =======         ======
           _A_UCA3ICTL_L           069C 
           LOCAL                   ADDRESS         
           =====                   =======         
           UCA3ICTL                069C 
           UCA3ICTL_H              069D 
           UCA3ICTL_L              069C 
    -------------------------------------------------------------------------
DATA20_Z
  Relative segment, address: 1ECE - 1ED7 (0xa bytes), align: 1
  Segment part 11.            Intra module refs:   UART3_RXISR
                                                   Uart3EmptyRxBuf
                                                   Uart3GetByte
                                                   Uart3GetRxData
                                                   Uart3GetRxDataLength
                                                   Uart3Init
           ENTRY                   ADDRESS         REF BY
           =====                   =======         ======
           sUart3Cb                1ECE 
    -------------------------------------------------------------------------
<CODE> 1 (was CODE)
  Relative segment, address: BB66 - BBBD (0x58 bytes), align: 1
  Segment part 22.
           ENTRY                   ADDRESS         REF BY
           =====                   =======         ======
           Uart3Init               BB66            main (main)
               calls direct
               CSTACK = 00000000 ( 00000004 )
    -------------------------------------------------------------------------
<CODE> 1 (was CODE)
  Relative segment, address: CC1E - CC35 (0x18 bytes), align: 1
  Segment part 19.
           ENTRY                   ADDRESS         REF BY
           =====                   =======         ======
           Uart3SendBuffer         CC1E            BdSendCmdICJC (BeiDouModule)
                                                   BdSendCmdTXSQ (BeiDouModule)
               CSTACK = 00000000 ( 00000004 )
    -------------------------------------------------------------------------
<CODE> 1 (was CODE)
  Relative segment, address: CD8C - CD9B (0x10 bytes), align: 1
  Segment part 16.
           ENTRY                   ADDRESS         REF BY
           =====                   =======         ======
           Uart3GetRxDataLength    CD8C            BdCmdRun (BeiDouModule)
                                                   BdSendCmdICJC (BeiDouModule)
                                                   GetBufBdInfo (BeiDouModule)
               CSTACK = 00000000 ( 00000004 )
    -------------------------------------------------------------------------
<CODE> 1 (was CODE)
  Relative segment, address: C4CE - C501 (0x34 bytes), align: 1
  Segment part 15.
           ENTRY                   ADDRESS         REF BY
           =====                   =======         ======
           Uart3GetByte            C4CE            BdCmdRun (BeiDouModule)
               CSTACK = 00000000 ( 00000004 )
    -------------------------------------------------------------------------
<CODE> 1 (was CODE)
  Relative segment, address: A59C - A641 (0xa6 bytes), align: 1
  Segment part 14.
           ENTRY                   ADDRESS         REF BY
           =====                   =======         ======
           Uart3GetRxData          A59C            BdSendCmdICJC (BeiDouModule)
                                                   GetBufBdInfo (BeiDouModule)
               calls direct
               CSTACK = 00000000 ( 00000014 )
    -------------------------------------------------------------------------
<CODE> 1 (was CODE)
  Relative segment, address: CACA - CAE5 (0x1c bytes), align: 1
  Segment part 13.
           ENTRY                   ADDRESS         REF BY
           =====                   =======         ======
           Uart3EmptyRxBuf         CACA            BdSendCmdICJC (BeiDouModule)
                                                   BdSendCmdTXSQ (BeiDouModule)
               CSTACK = 00000000 ( 00000004 )
    -------------------------------------------------------------------------
ISR_CODE
  Relative segment, address: 5DE2 - 5E21 (0x40 bytes), align: 1
  Segment part 12.            Intra module refs:   UART3_RXISR::??INTVEC 88
           ENTRY                   ADDRESS         REF BY
           =====                   =======         ======
           UART3_RXISR             5DE2 
               interrupt function
               CSTACK = 00000000 ( 00000010 )
    -------------------------------------------------------------------------
INTVEC
  Common segment, address: FF80 - FFD9 (0x5a bytes), align: 1
  Segment part 9. ROOT.
           ENTRY                   ADDRESS         REF BY
           =====                   =======         ======
           UART3_RXISR::??INTVEC 88
                                   FFD8 

    *************************************************************************

  FILE NAME : F:\work\01.Location\Location\Project\Project_5438_New\Debug\Obj\main.r43
  PROGRAM MODULE, NAME : main

  SEGMENTS IN THE MODULE
  ======================
DATA20_Z
  Relative segment, address: 207C - 207C (0x1 bytes), align: 0
  Segment part 7.
           ENTRY                   ADDRESS         REF BY
           =====                   =======         ======
           g_u8TimerDelay          207C            AssembleCdmaMsg (CdmaModule)
                                                   BdSendCmdICJC (BeiDouModule)
                                                   CdmaMsgParse (CdmaModule)
                                                   FlashLedDisable (SystemCtl)
                                                   FlashLedEnable (SystemCtl)
                                                   PrintfCmdList (DebugCmd)
                                                   TimerA_ISR (Timer)
    -------------------------------------------------------------------------
DATA20_Z
  Relative segment, address: 1ED8 - 1ED9 (0x2 bytes), align: 1
  Segment part 8.
           ENTRY                   ADDRESS         REF BY
           =====                   =======         ======
           g_u16TimerDelay         1ED8            CdmaRestInit (CdmaModule)
                                                   EnterLowPower (SystemCtl)
                                                   TimerA_ISR (Timer)
    -------------------------------------------------------------------------
DATA20_Z
  Relative segment, address: 207D - 207D (0x1 bytes), align: 0
  Segment part 10.
           ENTRY                   ADDRESS         REF BY
           =====                   =======         ======
           g_u8NeedSaved           207D            CmdBeiDouBckRecNumSet (DebugCmd)
                                                   CmdBeiDouRecNumSet (DebugCmd)
                                                   CmdSetCdmaLocationNbr (DebugCmd)
                                                   CmdSetCdmaReceivingNbr (DebugCmd)
                                                   RecordRun (Record)
                                                   SetSendInfoGapTime (DebugCmd)
                                                   SetSystemType (DebugCmd)
                                                   UseAutoMode (DebugCmd)
                                                   UseBeiDouMode (DebugCmd)
                                                   UseCdmaMode (DebugCmd)
    -------------------------------------------------------------------------
<CODE> 1 (was CODE)
  Relative segment, address: ACE8 - AD77 (0x90 bytes), align: 1
  Segment part 11.
           ENTRY                   ADDRESS         REF BY
           =====                   =======         ======
           main                    ACE8            Segment part 19 (?cstart)
               calls direct
               CSTACK = 00000000 ( 00000004 )
    -------------------------------------------------------------------------
DATA20_C
  Relative segment, address: E723 - E72F (0xd bytes), align: 0
  Segment part 5.             Intra module refs:   main

    *************************************************************************

  FILE NAME : C:\Program Files (x86)\IAR Systems\Embedded Workbench 6.0 Evaluation\430\LIB\DLIB\dl430xlfn.r43
  LIBRARY MODULE, NAME : ?Mul32fHwLoc2

  SEGMENTS IN THE MODULE
  ======================
<CODE> 1 (was CODE)
  Relative segment, address: 87BA - 88F3 (0x13a bytes), align: 1
  Segment part 0.
           ENTRY                   ADDRESS         REF BY
           =====                   =======         ======
           ?Mul32fHwLoc2           87BA            AdcDetect (BatteryDetect)
                                                   BatteryDetect (BatteryDetect)
                                                   Segment part 7 (?xdtento)
                                                   __iar_Stodx (?xstod)
                                                   dmul (?xdtento)

    -------------------------------------------------------------------------
  LIBRARY MODULE, NAME : ?Mul32Hw32Loc2

  SEGMENTS IN THE MODULE
  ======================
<CODE> 1 (was CODE)
  Relative segment, address: C914 - C935 (0x22 bytes), align: 1
  Segment part 0.
           ENTRY                   ADDRESS         REF BY
           =====                   =======         ======
           ?Mul32Hw32Loc2          C914            EnterLowPower (SystemCtl)
                                                   My_atoi (DebugCmd)
                                                   _Stoflt (?xstoflt)

    -------------------------------------------------------------------------
  LIBRARY MODULE, NAME : ?_exit

  SEGMENTS IN THE MODULE
  ======================
<CODE> 1 (was CODE)
  Relative segment, address: CF04, align: 1
  Segment part 0.
           ENTRY                   ADDRESS         REF BY
           =====                   =======         ======
           _exit                   CF04            exit (?exit)
    -------------------------------------------------------------------------
<CODE> 1 (was CODE)
  Relative segment, address: CF04 - CF07 (0x4 bytes), align: 1
  Segment part 5.             Intra module refs:   _exit

    -------------------------------------------------------------------------
  LIBRARY MODULE, NAME : ?cstart

  SEGMENTS IN THE MODULE
  ======================
CSTACK
  Relative segment, address: 59A8, align: 1
  Segment part 1.
    -------------------------------------------------------------------------
DATA20_Z
  Relative segment, address: 1EDA, align: 1
  Segment part 7.
    -------------------------------------------------------------------------
DATA20_I
  Relative segment, address: 1C10, align: 1
  Segment part 8.
    -------------------------------------------------------------------------
DATA20_ID
  Relative segment, address: E740, align: 1
  Segment part 9.
    -------------------------------------------------------------------------
CSTART
  Relative segment, address: 5C00 - 5C03 (0x4 bytes), align: 1
  Segment part 10.
           ENTRY                   ADDRESS         REF BY
           =====                   =======         ======
           __program_start         5C00            ?reset_vector (?reset_vector)
                                                   Absolute parts (?ABS_ENTRY_MOD)
           ?cstart_begin           5C00 
    -------------------------------------------------------------------------
CSTART
  Relative segment, address: 5C04 - 5C13 (0x10 bytes), align: 1
  Segment part 15.
           ENTRY                   ADDRESS         REF BY
           =====                   =======         ======
           ?cstart_init_zero20     5C04            ADC_ISR::u8Index (BatteryDetect)
                                                   AutoSystemGapTime::u8OldDay (SystemCtl)
                                                   OSMemFreeList (OS_MEM)
                                                   OSMemTbl (OS_MEM)
                                                   __iar_Errno (?errno)
                                                   apCmdHandlerList (DebugCmd)
                                                   au16AdcBuffer (BatteryDetect)
                                                   au8BdRxInfo (Communication)
                                                   au8BdSendInfo (Communication)
                                                   au8CmglIndex (CdmaModule)
                                                   au8LocationAddr (BeiDouModule)
                                                   au8MsgUnRead (CdmaModule)
                                                   bComplete (BatteryDetect)
                                                   bLedFlag (SystemCtl)
                                                   bMsgReady (CdmaModule)
                                                   bRtcFlag (GpsParse)
                                                   err (OS_MEM)
                                                   g_bBdSend (SystemCtl)
                                                   g_bCdmaSend (SystemCtl)
                                                   g_bDebug (SystemCtl)
                                                   g_bGpsCompleted (GpsParse)
                                                   g_bGpsFirstRx (GpsParse)
                                                   g_bSendInfo (SystemCtl)
                                                   g_bStandby (SystemCtl)
                                                   g_s8GpsFirstDog (GpsParse)
                                                   g_u16TimerDelay (main)
                                                   g_u8NeedSaved (main)
                                                   g_u8TimerDelay (main)
                                                   pLargeMem (OS_MEM)
                                                   pMediumMem (OS_MEM)
                                                   pSmallMem (OS_MEM)
                                                   s8BatDog (BatteryDetect)
                                                   s8LedDog (SystemCtl)
                                                   s8TestDog (Communication)
                                                   sBdCmdCb (BeiDouModule)
                                                   sCdmaCmdCb (CdmaModule)
                                                   sCmdFkxxCb (BeiDouModule)
                                                   sCurTime (Rtc)
                                                   sDebugCmdCb (DebugCmd)
                                                   sDogs (SoftTimer)
                                                   sGpsCmdCb (GpsParse)
                                                   sGpsInfoBuf (GpsParse)
                                                   sRecordCb (Record)
                                                   sSendInfo (Communication)
                                                   sTime (SystemCtl)
                                                   sUart0Cb (Uart0)
                                                   sUart1Cb (Uart1)
                                                   sUart2Cb (Uart2)
                                                   sUart3Cb (Uart3)
                                                   u16AdcResules (BatteryDetect)
                                                   u16BdRxNum (Communication)
                                                   u16BdSendNum (Communication)
                                                   u16BdSendSucceed (Communication)
                                                   u8BdCentage (Communication)
                                                   u8Num (GpsParse)
    -------------------------------------------------------------------------
CSTART
  Relative segment, address: 5C14 - 5C27 (0x14 bytes), align: 1
  Segment part 16.
           ENTRY                   ADDRESS         REF BY
           =====                   =======         ======
           ?cstart_init_copy20     5C14            au8Icjc (BeiDouModule)
                                                   pGpsCmd (GpsParse)
                                                   s8CurrentIndex (CdmaModule)
    -------------------------------------------------------------------------
CSTART
  Relative segment, address: 5C28 - 5C2F (0x8 bytes), align: 1
  Segment part 19.            Intra module refs:   Segment part 10
           ENTRY                   ADDRESS         REF BY
           =====                   =======         ======
           ?cstart_call_main       5C28 
           ?cstart_end             5C30 

    -------------------------------------------------------------------------
  LIBRARY MODULE, NAME : ?reset_vector

  SEGMENTS IN THE MODULE
  ======================
RESET
  Relative segment, address: FFFE - FFFF (0x2 bytes), align: 1
  Segment part 0.
           ENTRY                   ADDRESS         REF BY
           =====                   =======         ======
           ?reset_vector           FFFE            Segment part 10 (?cstart)

    -------------------------------------------------------------------------
  LIBRARY MODULE, NAME : ?errno

  SEGMENTS IN THE MODULE
  ======================
DATA20_Z
  Relative segment, address: 1EDA - 1EDB (0x2 bytes), align: 1
  Segment part 2.
           ENTRY                   ADDRESS         REF BY
           =====                   =======         ======
           __iar_Errno             1EDA            __iar_Dtentox (?xdtento)

    -------------------------------------------------------------------------
  LIBRARY MODULE, NAME : ?exit

  SEGMENTS IN THE MODULE
  ======================
<CODE> 1 (was CODE)
  Relative segment, address: CEFC - CEFF (0x4 bytes), align: 1
  Segment part 2.
           ENTRY                   ADDRESS         REF BY
           =====                   =======         ======
           exit                    CEFC            Segment part 19 (?cstart)
               calls direct
               CSTACK = 00000000 ( 00000004 )

    -------------------------------------------------------------------------
  LIBRARY MODULE, NAME : ?Cast32f32i

  SEGMENTS IN THE MODULE
  ======================
<CODE> 1 (was CODE)
  Relative segment, address: A832 - A8CF (0x9e bytes), align: 1
  Segment part 0.
           ENTRY                   ADDRESS         REF BY
           =====                   =======         ======
           _Cast32sto32f           A832            __iar_Stodx (?xstod)
           _Cast32uto32f           A848            AdcDetect (BatteryDetect)
                                                   BatteryDetect (BatteryDetect)

    -------------------------------------------------------------------------
  LIBRARY MODULE, NAME : _Cast32fto32u

  SEGMENTS IN THE MODULE
  ======================
<CODE> 1 (was CODE)
  Relative segment, address: CE8E - CE99 (0xc bytes), align: 1
  Segment part 0.
           ENTRY                   ADDRESS         REF BY
           =====                   =======         ======
           _Cast32fto32u           CE8E            AdcDetect (BatteryDetect)
                                                   BatteryDetect (BatteryDetect)
                                                   GpsInfoProcess (GpsParse)

    -------------------------------------------------------------------------
  LIBRARY MODULE, NAME : ?FLT_Extract

  SEGMENTS IN THE MODULE
  ======================
<CODE> 1 (was CODE)
  Relative segment, address: BBBE - BC11 (0x54 bytes), align: 1
  Segment part 0.
           ENTRY                   ADDRESS         REF BY
           =====                   =======         ======
           ?FLT_Extract            BBBE            _Cast32fto32u (_Cast32fto32u)

    -------------------------------------------------------------------------
  LIBRARY MODULE, NAME : ?FLT_EQ

  SEGMENTS IN THE MODULE
  ======================
<CODE> 1 (was CODE)
  Relative segment, address: C396 - C3C9 (0x34 bytes), align: 1
  Segment part 0.
           ENTRY                   ADDRESS         REF BY
           =====                   =======         ======
           ?FLT_EQ                 C396            _CmpEq32f (_CmpEq32f)

    -------------------------------------------------------------------------
  LIBRARY MODULE, NAME : _CmpEq32f

  SEGMENTS IN THE MODULE
  ======================
<CODE> 1 (was CODE)
  Relative segment, address: CE82 - CE8D (0xc bytes), align: 1
  Segment part 0.
           ENTRY                   ADDRESS         REF BY
           =====                   =======         ======
           _CmpEq32f               CE82            __iar_Dtentox (?xdtento)

    -------------------------------------------------------------------------
  LIBRARY MODULE, NAME : _Div32f

  SEGMENTS IN THE MODULE
  ======================
<CODE> 1 (was CODE)
  Relative segment, address: 8404 - 8543 (0x140 bytes), align: 1
  Segment part 0.
           ENTRY                   ADDRESS         REF BY
           =====                   =======         ======
           _Div32f                 8404            AdcDetect (BatteryDetect)
                                                   BatteryDetect (BatteryDetect)
                                                   __iar_Dtentox (?xdtento)

    -------------------------------------------------------------------------
  LIBRARY MODULE, NAME : _Add32f

  SEGMENTS IN THE MODULE
  ======================
<CODE> 1 (was CODE)
  Relative segment, address: 76DE - 784F (0x172 bytes), align: 1
  Segment part 0.
           ENTRY                   ADDRESS         REF BY
           =====                   =======         ======
           _Add32f                 76E2            AdcDetect (BatteryDetect)
                                                   BatteryDetect (BatteryDetect)
                                                   __iar_Stodx (?xstod)
           _Sub32f                 76DE 

    -------------------------------------------------------------------------
  LIBRARY MODULE, NAME : ?DivMod816u

  SEGMENTS IN THE MODULE
  ======================
<CODE> 1 (was CODE)
  Relative segment, address: CB56 - CB71 (0x1c bytes), align: 1
  Segment part 0.
           ENTRY                   ADDRESS         REF BY
           =====                   =======         ======
           ?DivMod8u               CB56            AdcDetect (BatteryDetect)
                                                   CaculateWeek (Rtc)
                                                   CmdGetCdmaCSQ (DebugCmd)
                                                   GetRtcTime (DebugCmd)
                                                   GetSendInfoGapTime (DebugCmd)
                                                   GetSystemType (DebugCmd)
                                                   SendInfoToCenter (Communication)
                                                   SetTimeToRtc (Rtc)
           ?DivMod16u              CB5A            CalibratRtc (GpsParse)
                                                   Segment part 0 (?DivMod816s)
                                                   SwdSetLifeTime (SoftTimer)

    -------------------------------------------------------------------------
  LIBRARY MODULE, NAME : ?DivMod816s

  SEGMENTS IN THE MODULE
  ======================
<CODE> 1 (was CODE)
  Relative segment, address: C328 - C35F (0x38 bytes), align: 1
  Segment part 0.
           ENTRY                   ADDRESS         REF BY
           =====                   =======         ======
           ?DivMod8s               C328            DeletCdmaMsg (CdmaModule)
                                                   GetTimeFromRtc (Rtc)
                                                   SendReadMsgCmd (CdmaModule)
           ?DivMod16s              C32C            CaculateWeek (Rtc)
                                                   PORT1_ISR (SystemCtl)
                                                   Segment part 3 (?xstoflt)
                                                   _Stoflt (?xstoflt)

    -------------------------------------------------------------------------
  LIBRARY MODULE, NAME : ?DivMod32u

  SEGMENTS IN THE MODULE
  ======================
<CODE> 1 (was CODE)
  Relative segment, address: BEBA - BEFD (0x44 bytes), align: 1
  Segment part 0.
           ENTRY                   ADDRESS         REF BY
           =====                   =======         ======
           ?DivMod32u              BEBA            AutoSystemGapTime (SystemCtl)
                                                   CmdIntToString (DebugCmd)
                                                   EnterLowPower (SystemCtl)
                                                   ReadSystemBdIndex (Record)
                                                   Segment part 6 (?xprintftiny)

    -------------------------------------------------------------------------
  LIBRARY MODULE, NAME : ?memcmp

  SEGMENTS IN THE MODULE
  ======================
<CODE> 1 (was CODE)
  Relative segment, address: C68A - C6B7 (0x2e bytes), align: 1
  Segment part 2.
           ENTRY                   ADDRESS         REF BY
           =====                   =======         ======
           memcmp                  C68A            BdCmdParse (BeiDouModule)
                                                   CalibratLocation (GpsParse)
                                                   CdmaMsgParse (CdmaModule)
                                                   CmdParseTXXX (BeiDouModule)
                                                   GetBufBdInfo (BeiDouModule)
                                                   NmeaPackType (GpsParse)
                                                   SetSystemType (DebugCmd)
               CSTACK = 00000000 ( 00000008 )

    -------------------------------------------------------------------------
  LIBRARY MODULE, NAME : ?memcpy

  SEGMENTS IN THE MODULE
  ======================
<CODE> 1 (was CODE)
  Relative segment, address: CA52 - CA6F (0x1e bytes), align: 1
  Segment part 2.
           ENTRY                   ADDRESS         REF BY
           =====                   =======         ======
           memcpy                  CA52            AssembleCdmaMsg (CdmaModule)
                                                   BdCmdRun (BeiDouModule)
                                                   BdSendCmdICJC (BeiDouModule)
                                                   BdSendCmdTXSQ (BeiDouModule)
                                                   CalibratLocation (GpsParse)
                                                   CalibratRtc (GpsParse)
                                                   CmdBeiDouSendMsg (DebugCmd)
                                                   CmdParseFKXX (BeiDouModule)
                                                   CmdParseTXXX (BeiDouModule)
                                                   CmdSetCdmaLocationNbr (DebugCmd)
                                                   CmdSetCdmaReceivingNbr (DebugCmd)
                                                   DeletCdmaMsg (CdmaModule)
                                                   GetBeiDouIcNum (BeiDouModule)
                                                   GetBufBdInfo (BeiDouModule)
                                                   GetCdmaCsqValue (CdmaModule)
                                                   GetCdmaTime (CdmaModule)
                                                   GetLocationNbr (CdmaModule)
                                                   GetSendInfoGapTime (DebugCmd)
                                                   GetSystemVersionInfo (DebugCmd)
                                                   GpsInfoProcess (GpsParse)
                                                   RegisteUnReadMsg (CdmaModule)
                                                   SendInfoToCenter (Communication)
                                                   SendReadMsgCmd (CdmaModule)
                                                   SetLocationNbr (CdmaModule)
                                                   Uart1GetRxData (Uart1)
                                                   Uart2GetRxData (Uart2)
                                                   Uart3GetRxData (Uart3)
                                                   __data20_memcpy (?memzero)
               CSTACK = 00000000 ( 0000000C )

    -------------------------------------------------------------------------
  LIBRARY MODULE, NAME : ?memset

  SEGMENTS IN THE MODULE
  ======================
<CODE> 1 (was CODE)
  Relative segment, address: CA70 - CA8D (0x1e bytes), align: 1
  Segment part 2.
           ENTRY                   ADDRESS         REF BY
           =====                   =======         ======
           memset                  CA70            CdmaCmdInit (CdmaModule)
                                                   CdmaCmdRun (CdmaModule)
                                                   CmdBeiDouBckRecNumGet (DebugCmd)
                                                   CmdBeiDouBckRecNumSet (DebugCmd)
                                                   CmdBeiDouLocNumGet (DebugCmd)
                                                   CmdBeiDouRecNumGet (DebugCmd)
                                                   CmdBeiDouRecNumSet (DebugCmd)
                                                   CmdBeiDouSendMsg (DebugCmd)
                                                   CmdHandlerInit (DebugCmd)
                                                   CmdParseTXXX (BeiDouModule)
                                                   CommunicationInit (Communication)
                                                   CreatCmdIndex (GpsParse)
                                                   DeletCdmaMsg (CdmaModule)
                                                   GetBufBdInfo (BeiDouModule)
                                                   GetSystemVersionInfo (DebugCmd)
                                                   GpsCmdRun (GpsParse)
                                                   OS_MemInit (OS_MEM)
                                                   RecordInit (Record)
                                                   SendInfoToCenter (Communication)
                                                   SendReadMsgCmd (CdmaModule)
                                                   SetSystemType (DebugCmd)
                                                   SystemRunTimeGet (DebugCmd)
               CSTACK = 00000000 ( 0000000C )

    -------------------------------------------------------------------------
  LIBRARY MODULE, NAME : ?memzero

  SEGMENTS IN THE MODULE
  ======================
<CODE> 1 (was CODE)
  Relative segment, address: CBBE - CBD5 (0x18 bytes), align: 1
  Segment part 4.
           ENTRY                   ADDRESS         REF BY
           =====                   =======         ======
           __data20_memzero        CBBE            ?cstart_init_zero20 (?cstart)
               CSTACK = 00000000 ( 00000004 )
    -------------------------------------------------------------------------
<CODE> 1 (was CODE)
  Relative segment, address: CF0C - CF0F (0x4 bytes), align: 1
  Segment part 3.
           ENTRY                   ADDRESS         REF BY
           =====                   =======         ======
           __data20_memcpy         CF0C            ?cstart_init_copy20 (?cstart)
               calls direct
               CSTACK = 00000000 ( 00000004 )

    -------------------------------------------------------------------------
  LIBRARY MODULE, NAME : ?sprintf

  SEGMENTS IN THE MODULE
  ======================
<CODE> 1 (was CODE)
  Relative segment, address: C2F0 - C327 (0x38 bytes), align: 1
  Segment part 2.
           ENTRY                   ADDRESS         REF BY
           =====                   =======         ======
           sprintf                 C2F0            CmdBeiDouGetSendSuccess (DebugCmd)
                                                   SystemRunTimeGet (DebugCmd)
               calls direct
               CSTACK = 00000000 ( 00000010 )

    -------------------------------------------------------------------------
  LIBRARY MODULE, NAME : ?strlen

  SEGMENTS IN THE MODULE
  ======================
<CODE> 1 (was CODE)
  Relative segment, address: C99C - C9BB (0x20 bytes), align: 1
  Segment part 2.
           ENTRY                   ADDRESS         REF BY
           =====                   =======         ======
           strlen                  C99C            _PrintfTiny (?xprintftiny)
               CSTACK = 00000000 ( 00000004 )

    -------------------------------------------------------------------------
  LIBRARY MODULE, NAME : ?xdscale

  SEGMENTS IN THE MODULE
  ======================
<CODE> 1 (was CODE)
  Relative segment, address: AB2A - ABBF (0x96 bytes), align: 1
  Segment part 2.
           ENTRY                   ADDRESS         REF BY
           =====                   =======         ======
           __iar_Dscale            AB2A            __iar_Dtentox (?xdtento)
                                                   dmul (?xdtento)
               CSTACK = 00000000 ( 00000014 )

    -------------------------------------------------------------------------
  LIBRARY MODULE, NAME : ?xdtento

  SEGMENTS IN THE MODULE
  ======================
<CODE> 1 (was CODE)
  Relative segment, address: BD04 - BD51 (0x4e bytes), align: 1
  Segment part 3.             Intra module refs:   __iar_Dtentox
                                                   dmul
           ENTRY                   ADDRESS         REF BY
           =====                   =======         ======
           __iar_Dunscale          BD04 
               CSTACK = 00000000 ( 00000008 )
    -------------------------------------------------------------------------
DATA20_C
  Relative segment, address: CF14 - CF2B (0x18 bytes), align: 1
  Segment part 2.             Intra module refs:   Segment part 7
    -------------------------------------------------------------------------
<CODE> 1 (was CODE)
  Relative segment, address: C002 - C03F (0x3e bytes), align: 1
  Segment part 4.             Intra module refs:   Segment part 6
           LOCAL                   ADDRESS         
           =====                   =======         
           dmul                    C002 
               calls direct
               CSTACK = 00000000 ( 00000012 )
    -------------------------------------------------------------------------
<CODE> 1 (was CODE)
  Relative segment, address: 79B8 - 7B17 (0x160 bytes), align: 1
  Segment part 5.
           ENTRY                   ADDRESS         REF BY
           =====                   =======         ======
           __iar_Dtentox           79B8            __iar_Stodx (?xstod)
               calls direct
               CSTACK = 00000000 ( 00000026 )
    -------------------------------------------------------------------------
<CODE> 1 (was CODE)
  Relative segment, address: CE3C - CE49 (0xe bytes), align: 1
  Segment part 6.             Intra module refs:   __iar_Dtentox
    -------------------------------------------------------------------------
<CODE> 1 (was CODE)
  Relative segment, address: CB3A - CB55 (0x1c bytes), align: 1
  Segment part 7.             Intra module refs:   __iar_Dtentox

    -------------------------------------------------------------------------
  LIBRARY MODULE, NAME : ?xprintftiny

  SEGMENTS IN THE MODULE
  ======================
<CODE> 1 (was CODE)
  Relative segment, address: 6EE0 - 7091 (0x1b2 bytes), align: 1
  Segment part 4.
           ENTRY                   ADDRESS         REF BY
           =====                   =======         ======
           _PrintfTiny             6EE0            sprintf (?sprintf)
               calls direct and indirect
               CSTACK = 00000000 ( 00000038 )
    -------------------------------------------------------------------------
<CODE> 1 (was CODE)
  Relative segment, address: CEE8 - CEEF (0x8 bytes), align: 1
  Segment part 5.             Intra module refs:   _PrintfTiny
    -------------------------------------------------------------------------
<CODE> 1 (was CODE)
  Relative segment, address: CD7C - CD8B (0x10 bytes), align: 1
  Segment part 6.             Intra module refs:   _PrintfTiny

    -------------------------------------------------------------------------
  LIBRARY MODULE, NAME : ?xsprout

  SEGMENTS IN THE MODULE
  ======================
<CODE> 1 (was CODE)
  Relative segment, address: CE66 - CE73 (0xe bytes), align: 1
  Segment part 2.
           ENTRY                   ADDRESS         REF BY
           =====                   =======         ======
           _SProut                 CE66            sprintf (?sprintf)
               CSTACK = 00000000 ( 00000004 )

    -------------------------------------------------------------------------
  LIBRARY MODULE, NAME : ?xstod

  SEGMENTS IN THE MODULE
  ======================
<CODE> 1 (was CODE)
  Relative segment, address: 9610 - 9707 (0xf8 bytes), align: 1
  Segment part 2.             Intra module refs:   __iar_Stod
           ENTRY                   ADDRESS         REF BY
           =====                   =======         ======
           __iar_Stodx             9610 
               calls direct
               CSTACK = 00000000 ( 00000034 )
    -------------------------------------------------------------------------
<CODE> 1 (was CODE)
  Relative segment, address: CE9A - CEA5 (0xc bytes), align: 1
  Segment part 3.
           ENTRY                   ADDRESS         REF BY
           =====                   =======         ======
           __iar_Stod              CE9A            atof (GpsParse)
               calls direct
               CSTACK = 00000000 ( 00000008 )

    -------------------------------------------------------------------------
  LIBRARY MODULE, NAME : ?xstoflt

  SEGMENTS IN THE MODULE
  ======================
<CODE> 1 (was CODE)
  Relative segment, address: 61CA - 63EB (0x222 bytes), align: 1
  Segment part 2.
           ENTRY                   ADDRESS         REF BY
           =====                   =======         ======
           _Stoflt                 61CA            __iar_Stodx (?xstod)
               CSTACK = 00000000 ( 0000005E )
    -------------------------------------------------------------------------
<CODE> 1 (was CODE)
  Relative segment, address: CE4A - CE57 (0xe bytes), align: 1
  Segment part 3.             Intra module refs:   _Stoflt
    -------------------------------------------------------------------------
<CODE> 1 (was CODE)
  Relative segment, address: CEC6 - CECF (0xa bytes), align: 1
  Segment part 4.             Intra module refs:   _Stoflt
    -------------------------------------------------------------------------
<CODE> 1 (was CODE)
  Relative segment, address: CD6C - CD7B (0x10 bytes), align: 1
  Segment part 5.             Intra module refs:   _Stoflt
    -------------------------------------------------------------------------
<CODE> 1 (was CODE)
  Relative segment, address: CEBC - CEC5 (0xa bytes), align: 1
  Segment part 6.             Intra module refs:   _Stoflt
    -------------------------------------------------------------------------
<CODE> 1 (was CODE)
  Relative segment, address: CE58 - CE65 (0xe bytes), align: 1
  Segment part 7.             Intra module refs:   _Stoflt

    -------------------------------------------------------------------------
  LIBRARY MODULE, NAME : ?xstopfx

  SEGMENTS IN THE MODULE
  ======================
<CODE> 1 (was CODE)
  Relative segment, address: C7B8 - C7E1 (0x2a bytes), align: 1
  Segment part 2.             Intra module refs:   _Stopfx
           ENTRY                   ADDRESS         REF BY
           =====                   =======         ======
           isalnum                 C7B8 
               CSTACK = 00000000 ( 00000004 )
    -------------------------------------------------------------------------
<CODE> 1 (was CODE)
  Relative segment, address: 9514 - 960F (0xfc bytes), align: 1
  Segment part 3.
           ENTRY                   ADDRESS         REF BY
           =====                   =======         ======
           _Stopfx                 9514            __iar_Stodx (?xstod)
               calls direct
               CSTACK = 00000000 ( 0000001C )

    -------------------------------------------------------------------------
  LIBRARY MODULE, NAME : ?__exit

  SEGMENTS IN THE MODULE
  ======================
<CODE> 1 (was CODE)
  Relative segment, address: CF10 - CF13 (0x4 bytes), align: 1
  Segment part 2.
           ENTRY                   ADDRESS         REF BY
           =====                   =======         ======
           __exit                  CF10            Segment part 5 (?_exit)
                                                   _exit (?_exit)




                ****************************************
                *                                      *
                *      SEGMENTS IN ADDRESS ORDER       *
                *                                      *
                ****************************************


SEGMENT              SPACE    START ADDRESS   END ADDRESS     SIZE  TYPE  ALIGN
=======              =====    =============   ===========     ====  ====  =====
DATA16_AN                              0102 - 0103               2   rel    0
                                       015C - 015D               2 
                                       0160 - 0165               6 
                                       0168 - 0169               2 
                                       016C - 016F               4 
                                       0202 - 0205               4 
                                       0218 - 021D               6 
                                       0222 - 0225               4 
                                       022A - 022B               2 
                                       0242 - 0245               4 
                                       024A - 024B               2 
                                       0260 - 0265               6 
                                       026A - 026B               2 
                                       0282 - 0285               4 
                                       028A - 028B               2 
                                       02A2 - 02A5               4 
                                       02A8 - 02AB               4 
                                       0340 - 0343               4 
                                       0352 - 0353               2 
                                       05C0 - 05C1               2 
                                       05C6 - 05C8               3 
                                       05CC - 05CC               1 
                                       05CE - 05CE               1 
                                       05DC - 05DD               2 
                                       0600 - 0601               2 
                                       0606 - 0608               3 
                                       060C - 060C               1 
                                       060E - 060E               1 
                                       061C - 061D               2 
                                       0640 - 0641               2 
                                       0646 - 0648               3 
                                       064C - 064C               1 
                                       064E - 064E               1 
                                       065C - 065D               2 
                                       0680 - 0681               2 
                                       0686 - 0688               3 
                                       068C - 068C               1 
                                       068E - 068E               1 
                                       069C - 069D               2 
                                       0700 - 0703               4 
                                       070C - 070D               2 
                                       0710 - 0710               1 
                                       0720 - 0721               2 
DATA20_I                               1C00 - 1C1C              1D   rel    1
DATA20_Z                               1C1E - 207D             460   rel    1
DATA20_N                               207E - 487D            2800   rel    0
CSTACK                                 59A8 - 5BFF             258   rel    1
CSTART                                 5C00 - 5C2F              30   rel    1
ISR_CODE                               5C30 - 5E21             1F2   rel    1
<CODE> 1                               5E22 - CF13            70F2   rel    1
DATA20_C                               CF14 - E72F            181C   rel    1
DATA20_ID                              E730 - E74C              1D   rel    1
INTVEC                                 FF80 - FFF3              74   com    1
RESET                                  FFFE - FFFF               2   rel    1

                ****************************************
                *                                      *
                *        END OF CROSS REFERENCE        *
                *                                      *
                ****************************************

 29 578 bytes of CODE  memory
 11 989 bytes of DATA  memory (+ 111 absolute )
  6 201 bytes of CONST memory

Errors: none
Warnings: none

